
DRS_tone_generator.elf:     file format elf32-littlearm

Sections:
Idx Name          Size      VMA       LMA       File off  Algn
  0 .isr_vector   000000b8  08000000  08000000  00010000  2**0
                  CONTENTS, ALLOC, LOAD, READONLY, DATA
  1 .text         0000451c  080000b8  080000b8  000100b8  2**2
                  CONTENTS, ALLOC, LOAD, READONLY, CODE
  2 .rodata       0000010c  080045d4  080045d4  000145d4  2**2
                  CONTENTS, ALLOC, LOAD, READONLY, DATA
  3 .ARM.extab    00000000  080046e0  080046e0  00020070  2**0
                  CONTENTS
  4 .ARM          00000008  080046e0  080046e0  000146e0  2**2
                  CONTENTS, ALLOC, LOAD, READONLY, DATA
  5 .preinit_array 00000000  080046e8  080046e8  00020070  2**0
                  CONTENTS, ALLOC, LOAD, DATA
  6 .init_array   00000004  080046e8  080046e8  000146e8  2**2
                  CONTENTS, ALLOC, LOAD, DATA
  7 .fini_array   00000004  080046ec  080046ec  000146ec  2**2
                  CONTENTS, ALLOC, LOAD, DATA
  8 .data         00000070  20000000  080046f0  00020000  2**2
                  CONTENTS, ALLOC, LOAD, DATA
  9 .bss          000000a0  20000070  08004760  00020070  2**2
                  ALLOC
 10 ._user_heap_stack 00000600  20000110  08004760  00020110  2**0
                  ALLOC
 11 .ARM.attributes 00000028  00000000  00000000  00020070  2**0
                  CONTENTS, READONLY
 12 .comment      00000050  00000000  00000000  00020098  2**0
                  CONTENTS, READONLY
 13 .debug_frame  000006f4  00000000  00000000  000200e8  2**2
                  CONTENTS, READONLY, DEBUGGING, OCTETS

Disassembly of section .text:

080000b8 <__do_global_dtors_aux>:
 80000b8:	b510      	push	{r4, lr}
 80000ba:	4c06      	ldr	r4, [pc, #24]	; (80000d4 <__do_global_dtors_aux+0x1c>)
 80000bc:	7823      	ldrb	r3, [r4, #0]
 80000be:	2b00      	cmp	r3, #0
 80000c0:	d107      	bne.n	80000d2 <__do_global_dtors_aux+0x1a>
 80000c2:	4b05      	ldr	r3, [pc, #20]	; (80000d8 <__do_global_dtors_aux+0x20>)
 80000c4:	2b00      	cmp	r3, #0
 80000c6:	d002      	beq.n	80000ce <__do_global_dtors_aux+0x16>
 80000c8:	4804      	ldr	r0, [pc, #16]	; (80000dc <__do_global_dtors_aux+0x24>)
 80000ca:	e000      	b.n	80000ce <__do_global_dtors_aux+0x16>
 80000cc:	bf00      	nop
 80000ce:	2301      	movs	r3, #1
 80000d0:	7023      	strb	r3, [r4, #0]
 80000d2:	bd10      	pop	{r4, pc}
 80000d4:	20000070 	.word	0x20000070
 80000d8:	00000000 	.word	0x00000000
 80000dc:	080045bc 	.word	0x080045bc

080000e0 <frame_dummy>:
 80000e0:	4b04      	ldr	r3, [pc, #16]	; (80000f4 <frame_dummy+0x14>)
 80000e2:	b510      	push	{r4, lr}
 80000e4:	2b00      	cmp	r3, #0
 80000e6:	d003      	beq.n	80000f0 <frame_dummy+0x10>
 80000e8:	4903      	ldr	r1, [pc, #12]	; (80000f8 <frame_dummy+0x18>)
 80000ea:	4804      	ldr	r0, [pc, #16]	; (80000fc <frame_dummy+0x1c>)
 80000ec:	e000      	b.n	80000f0 <frame_dummy+0x10>
 80000ee:	bf00      	nop
 80000f0:	bd10      	pop	{r4, pc}
 80000f2:	46c0      	nop			; (mov r8, r8)
 80000f4:	00000000 	.word	0x00000000
 80000f8:	20000074 	.word	0x20000074
 80000fc:	080045bc 	.word	0x080045bc

08000100 <strlen>:
 8000100:	2300      	movs	r3, #0
 8000102:	5cc2      	ldrb	r2, [r0, r3]
 8000104:	3301      	adds	r3, #1
 8000106:	2a00      	cmp	r2, #0
 8000108:	d1fb      	bne.n	8000102 <strlen+0x2>
 800010a:	1e58      	subs	r0, r3, #1
 800010c:	4770      	bx	lr
	...

08000110 <__gnu_thumb1_case_shi>:
 8000110:	b403      	push	{r0, r1}
 8000112:	4671      	mov	r1, lr
 8000114:	0849      	lsrs	r1, r1, #1
 8000116:	0040      	lsls	r0, r0, #1
 8000118:	0049      	lsls	r1, r1, #1
 800011a:	5e09      	ldrsh	r1, [r1, r0]
 800011c:	0049      	lsls	r1, r1, #1
 800011e:	448e      	add	lr, r1
 8000120:	bc03      	pop	{r0, r1}
 8000122:	4770      	bx	lr

08000124 <__udivsi3>:
 8000124:	2200      	movs	r2, #0
 8000126:	0843      	lsrs	r3, r0, #1
 8000128:	428b      	cmp	r3, r1
 800012a:	d374      	bcc.n	8000216 <__udivsi3+0xf2>
 800012c:	0903      	lsrs	r3, r0, #4
 800012e:	428b      	cmp	r3, r1
 8000130:	d35f      	bcc.n	80001f2 <__udivsi3+0xce>
 8000132:	0a03      	lsrs	r3, r0, #8
 8000134:	428b      	cmp	r3, r1
 8000136:	d344      	bcc.n	80001c2 <__udivsi3+0x9e>
 8000138:	0b03      	lsrs	r3, r0, #12
 800013a:	428b      	cmp	r3, r1
 800013c:	d328      	bcc.n	8000190 <__udivsi3+0x6c>
 800013e:	0c03      	lsrs	r3, r0, #16
 8000140:	428b      	cmp	r3, r1
 8000142:	d30d      	bcc.n	8000160 <__udivsi3+0x3c>
 8000144:	22ff      	movs	r2, #255	; 0xff
 8000146:	0209      	lsls	r1, r1, #8
 8000148:	ba12      	rev	r2, r2
 800014a:	0c03      	lsrs	r3, r0, #16
 800014c:	428b      	cmp	r3, r1
 800014e:	d302      	bcc.n	8000156 <__udivsi3+0x32>
 8000150:	1212      	asrs	r2, r2, #8
 8000152:	0209      	lsls	r1, r1, #8
 8000154:	d065      	beq.n	8000222 <__udivsi3+0xfe>
 8000156:	0b03      	lsrs	r3, r0, #12
 8000158:	428b      	cmp	r3, r1
 800015a:	d319      	bcc.n	8000190 <__udivsi3+0x6c>
 800015c:	e000      	b.n	8000160 <__udivsi3+0x3c>
 800015e:	0a09      	lsrs	r1, r1, #8
 8000160:	0bc3      	lsrs	r3, r0, #15
 8000162:	428b      	cmp	r3, r1
 8000164:	d301      	bcc.n	800016a <__udivsi3+0x46>
 8000166:	03cb      	lsls	r3, r1, #15
 8000168:	1ac0      	subs	r0, r0, r3
 800016a:	4152      	adcs	r2, r2
 800016c:	0b83      	lsrs	r3, r0, #14
 800016e:	428b      	cmp	r3, r1
 8000170:	d301      	bcc.n	8000176 <__udivsi3+0x52>
 8000172:	038b      	lsls	r3, r1, #14
 8000174:	1ac0      	subs	r0, r0, r3
 8000176:	4152      	adcs	r2, r2
 8000178:	0b43      	lsrs	r3, r0, #13
 800017a:	428b      	cmp	r3, r1
 800017c:	d301      	bcc.n	8000182 <__udivsi3+0x5e>
 800017e:	034b      	lsls	r3, r1, #13
 8000180:	1ac0      	subs	r0, r0, r3
 8000182:	4152      	adcs	r2, r2
 8000184:	0b03      	lsrs	r3, r0, #12
 8000186:	428b      	cmp	r3, r1
 8000188:	d301      	bcc.n	800018e <__udivsi3+0x6a>
 800018a:	030b      	lsls	r3, r1, #12
 800018c:	1ac0      	subs	r0, r0, r3
 800018e:	4152      	adcs	r2, r2
 8000190:	0ac3      	lsrs	r3, r0, #11
 8000192:	428b      	cmp	r3, r1
 8000194:	d301      	bcc.n	800019a <__udivsi3+0x76>
 8000196:	02cb      	lsls	r3, r1, #11
 8000198:	1ac0      	subs	r0, r0, r3
 800019a:	4152      	adcs	r2, r2
 800019c:	0a83      	lsrs	r3, r0, #10
 800019e:	428b      	cmp	r3, r1
 80001a0:	d301      	bcc.n	80001a6 <__udivsi3+0x82>
 80001a2:	028b      	lsls	r3, r1, #10
 80001a4:	1ac0      	subs	r0, r0, r3
 80001a6:	4152      	adcs	r2, r2
 80001a8:	0a43      	lsrs	r3, r0, #9
 80001aa:	428b      	cmp	r3, r1
 80001ac:	d301      	bcc.n	80001b2 <__udivsi3+0x8e>
 80001ae:	024b      	lsls	r3, r1, #9
 80001b0:	1ac0      	subs	r0, r0, r3
 80001b2:	4152      	adcs	r2, r2
 80001b4:	0a03      	lsrs	r3, r0, #8
 80001b6:	428b      	cmp	r3, r1
 80001b8:	d301      	bcc.n	80001be <__udivsi3+0x9a>
 80001ba:	020b      	lsls	r3, r1, #8
 80001bc:	1ac0      	subs	r0, r0, r3
 80001be:	4152      	adcs	r2, r2
 80001c0:	d2cd      	bcs.n	800015e <__udivsi3+0x3a>
 80001c2:	09c3      	lsrs	r3, r0, #7
 80001c4:	428b      	cmp	r3, r1
 80001c6:	d301      	bcc.n	80001cc <__udivsi3+0xa8>
 80001c8:	01cb      	lsls	r3, r1, #7
 80001ca:	1ac0      	subs	r0, r0, r3
 80001cc:	4152      	adcs	r2, r2
 80001ce:	0983      	lsrs	r3, r0, #6
 80001d0:	428b      	cmp	r3, r1
 80001d2:	d301      	bcc.n	80001d8 <__udivsi3+0xb4>
 80001d4:	018b      	lsls	r3, r1, #6
 80001d6:	1ac0      	subs	r0, r0, r3
 80001d8:	4152      	adcs	r2, r2
 80001da:	0943      	lsrs	r3, r0, #5
 80001dc:	428b      	cmp	r3, r1
 80001de:	d301      	bcc.n	80001e4 <__udivsi3+0xc0>
 80001e0:	014b      	lsls	r3, r1, #5
 80001e2:	1ac0      	subs	r0, r0, r3
 80001e4:	4152      	adcs	r2, r2
 80001e6:	0903      	lsrs	r3, r0, #4
 80001e8:	428b      	cmp	r3, r1
 80001ea:	d301      	bcc.n	80001f0 <__udivsi3+0xcc>
 80001ec:	010b      	lsls	r3, r1, #4
 80001ee:	1ac0      	subs	r0, r0, r3
 80001f0:	4152      	adcs	r2, r2
 80001f2:	08c3      	lsrs	r3, r0, #3
 80001f4:	428b      	cmp	r3, r1
 80001f6:	d301      	bcc.n	80001fc <__udivsi3+0xd8>
 80001f8:	00cb      	lsls	r3, r1, #3
 80001fa:	1ac0      	subs	r0, r0, r3
 80001fc:	4152      	adcs	r2, r2
 80001fe:	0883      	lsrs	r3, r0, #2
 8000200:	428b      	cmp	r3, r1
 8000202:	d301      	bcc.n	8000208 <__udivsi3+0xe4>
 8000204:	008b      	lsls	r3, r1, #2
 8000206:	1ac0      	subs	r0, r0, r3
 8000208:	4152      	adcs	r2, r2
 800020a:	0843      	lsrs	r3, r0, #1
 800020c:	428b      	cmp	r3, r1
 800020e:	d301      	bcc.n	8000214 <__udivsi3+0xf0>
 8000210:	004b      	lsls	r3, r1, #1
 8000212:	1ac0      	subs	r0, r0, r3
 8000214:	4152      	adcs	r2, r2
 8000216:	1a41      	subs	r1, r0, r1
 8000218:	d200      	bcs.n	800021c <__udivsi3+0xf8>
 800021a:	4601      	mov	r1, r0
 800021c:	4152      	adcs	r2, r2
 800021e:	4610      	mov	r0, r2
 8000220:	4770      	bx	lr
 8000222:	e7ff      	b.n	8000224 <__udivsi3+0x100>
 8000224:	b501      	push	{r0, lr}
 8000226:	2000      	movs	r0, #0
 8000228:	f000 f806 	bl	8000238 <__aeabi_idiv0>
 800022c:	bd02      	pop	{r1, pc}
 800022e:	46c0      	nop			; (mov r8, r8)

08000230 <__aeabi_uidivmod>:
 8000230:	2900      	cmp	r1, #0
 8000232:	d0f7      	beq.n	8000224 <__udivsi3+0x100>
 8000234:	e776      	b.n	8000124 <__udivsi3>
 8000236:	4770      	bx	lr

08000238 <__aeabi_idiv0>:
 8000238:	4770      	bx	lr
 800023a:	46c0      	nop			; (mov r8, r8)

0800023c <__aeabi_cdrcmple>:
 800023c:	4684      	mov	ip, r0
 800023e:	0010      	movs	r0, r2
 8000240:	4662      	mov	r2, ip
 8000242:	468c      	mov	ip, r1
 8000244:	0019      	movs	r1, r3
 8000246:	4663      	mov	r3, ip
 8000248:	e000      	b.n	800024c <__aeabi_cdcmpeq>
 800024a:	46c0      	nop			; (mov r8, r8)

0800024c <__aeabi_cdcmpeq>:
 800024c:	b51f      	push	{r0, r1, r2, r3, r4, lr}
 800024e:	f001 f82d 	bl	80012ac <__ledf2>
 8000252:	2800      	cmp	r0, #0
 8000254:	d401      	bmi.n	800025a <__aeabi_cdcmpeq+0xe>
 8000256:	2100      	movs	r1, #0
 8000258:	42c8      	cmn	r0, r1
 800025a:	bd1f      	pop	{r0, r1, r2, r3, r4, pc}

0800025c <__aeabi_dcmpeq>:
 800025c:	b510      	push	{r4, lr}
 800025e:	f000 ff7d 	bl	800115c <__eqdf2>
 8000262:	4240      	negs	r0, r0
 8000264:	3001      	adds	r0, #1
 8000266:	bd10      	pop	{r4, pc}

08000268 <__aeabi_dcmplt>:
 8000268:	b510      	push	{r4, lr}
 800026a:	f001 f81f 	bl	80012ac <__ledf2>
 800026e:	2800      	cmp	r0, #0
 8000270:	db01      	blt.n	8000276 <__aeabi_dcmplt+0xe>
 8000272:	2000      	movs	r0, #0
 8000274:	bd10      	pop	{r4, pc}
 8000276:	2001      	movs	r0, #1
 8000278:	bd10      	pop	{r4, pc}
 800027a:	46c0      	nop			; (mov r8, r8)

0800027c <__aeabi_dcmple>:
 800027c:	b510      	push	{r4, lr}
 800027e:	f001 f815 	bl	80012ac <__ledf2>
 8000282:	2800      	cmp	r0, #0
 8000284:	dd01      	ble.n	800028a <__aeabi_dcmple+0xe>
 8000286:	2000      	movs	r0, #0
 8000288:	bd10      	pop	{r4, pc}
 800028a:	2001      	movs	r0, #1
 800028c:	bd10      	pop	{r4, pc}
 800028e:	46c0      	nop			; (mov r8, r8)

08000290 <__aeabi_dcmpgt>:
 8000290:	b510      	push	{r4, lr}
 8000292:	f000 ffa5 	bl	80011e0 <__gedf2>
 8000296:	2800      	cmp	r0, #0
 8000298:	dc01      	bgt.n	800029e <__aeabi_dcmpgt+0xe>
 800029a:	2000      	movs	r0, #0
 800029c:	bd10      	pop	{r4, pc}
 800029e:	2001      	movs	r0, #1
 80002a0:	bd10      	pop	{r4, pc}
 80002a2:	46c0      	nop			; (mov r8, r8)

080002a4 <__aeabi_dcmpge>:
 80002a4:	b510      	push	{r4, lr}
 80002a6:	f000 ff9b 	bl	80011e0 <__gedf2>
 80002aa:	2800      	cmp	r0, #0
 80002ac:	da01      	bge.n	80002b2 <__aeabi_dcmpge+0xe>
 80002ae:	2000      	movs	r0, #0
 80002b0:	bd10      	pop	{r4, pc}
 80002b2:	2001      	movs	r0, #1
 80002b4:	bd10      	pop	{r4, pc}
 80002b6:	46c0      	nop			; (mov r8, r8)

080002b8 <__aeabi_uldivmod>:
 80002b8:	2b00      	cmp	r3, #0
 80002ba:	d111      	bne.n	80002e0 <__aeabi_uldivmod+0x28>
 80002bc:	2a00      	cmp	r2, #0
 80002be:	d10f      	bne.n	80002e0 <__aeabi_uldivmod+0x28>
 80002c0:	2900      	cmp	r1, #0
 80002c2:	d100      	bne.n	80002c6 <__aeabi_uldivmod+0xe>
 80002c4:	2800      	cmp	r0, #0
 80002c6:	d002      	beq.n	80002ce <__aeabi_uldivmod+0x16>
 80002c8:	2100      	movs	r1, #0
 80002ca:	43c9      	mvns	r1, r1
 80002cc:	0008      	movs	r0, r1
 80002ce:	b407      	push	{r0, r1, r2}
 80002d0:	4802      	ldr	r0, [pc, #8]	; (80002dc <__aeabi_uldivmod+0x24>)
 80002d2:	a102      	add	r1, pc, #8	; (adr r1, 80002dc <__aeabi_uldivmod+0x24>)
 80002d4:	1840      	adds	r0, r0, r1
 80002d6:	9002      	str	r0, [sp, #8]
 80002d8:	bd03      	pop	{r0, r1, pc}
 80002da:	46c0      	nop			; (mov r8, r8)
 80002dc:	ffffff5d 	.word	0xffffff5d
 80002e0:	b403      	push	{r0, r1}
 80002e2:	4668      	mov	r0, sp
 80002e4:	b501      	push	{r0, lr}
 80002e6:	9802      	ldr	r0, [sp, #8]
 80002e8:	f000 f83a 	bl	8000360 <__udivmoddi4>
 80002ec:	9b01      	ldr	r3, [sp, #4]
 80002ee:	469e      	mov	lr, r3
 80002f0:	b002      	add	sp, #8
 80002f2:	bc0c      	pop	{r2, r3}
 80002f4:	4770      	bx	lr
 80002f6:	46c0      	nop			; (mov r8, r8)

080002f8 <__aeabi_d2uiz>:
 80002f8:	b570      	push	{r4, r5, r6, lr}
 80002fa:	2200      	movs	r2, #0
 80002fc:	4b0c      	ldr	r3, [pc, #48]	; (8000330 <__aeabi_d2uiz+0x38>)
 80002fe:	0004      	movs	r4, r0
 8000300:	000d      	movs	r5, r1
 8000302:	f7ff ffcf 	bl	80002a4 <__aeabi_dcmpge>
 8000306:	2800      	cmp	r0, #0
 8000308:	d104      	bne.n	8000314 <__aeabi_d2uiz+0x1c>
 800030a:	0020      	movs	r0, r4
 800030c:	0029      	movs	r1, r5
 800030e:	f001 fe2f 	bl	8001f70 <__aeabi_d2iz>
 8000312:	bd70      	pop	{r4, r5, r6, pc}
 8000314:	4b06      	ldr	r3, [pc, #24]	; (8000330 <__aeabi_d2uiz+0x38>)
 8000316:	2200      	movs	r2, #0
 8000318:	0020      	movs	r0, r4
 800031a:	0029      	movs	r1, r5
 800031c:	f001 fa96 	bl	800184c <__aeabi_dsub>
 8000320:	f001 fe26 	bl	8001f70 <__aeabi_d2iz>
 8000324:	2380      	movs	r3, #128	; 0x80
 8000326:	061b      	lsls	r3, r3, #24
 8000328:	469c      	mov	ip, r3
 800032a:	4460      	add	r0, ip
 800032c:	e7f1      	b.n	8000312 <__aeabi_d2uiz+0x1a>
 800032e:	46c0      	nop			; (mov r8, r8)
 8000330:	41e00000 	.word	0x41e00000

08000334 <__aeabi_ul2d>:
 8000334:	b570      	push	{r4, r5, r6, lr}
 8000336:	0006      	movs	r6, r0
 8000338:	0008      	movs	r0, r1
 800033a:	f001 fe4f 	bl	8001fdc <__aeabi_ui2d>
 800033e:	2200      	movs	r2, #0
 8000340:	4b06      	ldr	r3, [pc, #24]	; (800035c <__aeabi_ul2d+0x28>)
 8000342:	f001 f817 	bl	8001374 <__aeabi_dmul>
 8000346:	000d      	movs	r5, r1
 8000348:	0004      	movs	r4, r0
 800034a:	0030      	movs	r0, r6
 800034c:	f001 fe46 	bl	8001fdc <__aeabi_ui2d>
 8000350:	002b      	movs	r3, r5
 8000352:	0022      	movs	r2, r4
 8000354:	f000 f8d0 	bl	80004f8 <__aeabi_dadd>
 8000358:	bd70      	pop	{r4, r5, r6, pc}
 800035a:	46c0      	nop			; (mov r8, r8)
 800035c:	41f00000 	.word	0x41f00000

08000360 <__udivmoddi4>:
 8000360:	b5f0      	push	{r4, r5, r6, r7, lr}
 8000362:	4657      	mov	r7, sl
 8000364:	464e      	mov	r6, r9
 8000366:	4645      	mov	r5, r8
 8000368:	46de      	mov	lr, fp
 800036a:	b5e0      	push	{r5, r6, r7, lr}
 800036c:	0004      	movs	r4, r0
 800036e:	000d      	movs	r5, r1
 8000370:	4692      	mov	sl, r2
 8000372:	4699      	mov	r9, r3
 8000374:	b083      	sub	sp, #12
 8000376:	428b      	cmp	r3, r1
 8000378:	d830      	bhi.n	80003dc <__udivmoddi4+0x7c>
 800037a:	d02d      	beq.n	80003d8 <__udivmoddi4+0x78>
 800037c:	4649      	mov	r1, r9
 800037e:	4650      	mov	r0, sl
 8000380:	f001 fe70 	bl	8002064 <__clzdi2>
 8000384:	0029      	movs	r1, r5
 8000386:	0006      	movs	r6, r0
 8000388:	0020      	movs	r0, r4
 800038a:	f001 fe6b 	bl	8002064 <__clzdi2>
 800038e:	1a33      	subs	r3, r6, r0
 8000390:	4698      	mov	r8, r3
 8000392:	3b20      	subs	r3, #32
 8000394:	469b      	mov	fp, r3
 8000396:	d433      	bmi.n	8000400 <__udivmoddi4+0xa0>
 8000398:	465a      	mov	r2, fp
 800039a:	4653      	mov	r3, sl
 800039c:	4093      	lsls	r3, r2
 800039e:	4642      	mov	r2, r8
 80003a0:	001f      	movs	r7, r3
 80003a2:	4653      	mov	r3, sl
 80003a4:	4093      	lsls	r3, r2
 80003a6:	001e      	movs	r6, r3
 80003a8:	42af      	cmp	r7, r5
 80003aa:	d83a      	bhi.n	8000422 <__udivmoddi4+0xc2>
 80003ac:	42af      	cmp	r7, r5
 80003ae:	d100      	bne.n	80003b2 <__udivmoddi4+0x52>
 80003b0:	e078      	b.n	80004a4 <__udivmoddi4+0x144>
 80003b2:	465b      	mov	r3, fp
 80003b4:	1ba4      	subs	r4, r4, r6
 80003b6:	41bd      	sbcs	r5, r7
 80003b8:	2b00      	cmp	r3, #0
 80003ba:	da00      	bge.n	80003be <__udivmoddi4+0x5e>
 80003bc:	e075      	b.n	80004aa <__udivmoddi4+0x14a>
 80003be:	2200      	movs	r2, #0
 80003c0:	2300      	movs	r3, #0
 80003c2:	9200      	str	r2, [sp, #0]
 80003c4:	9301      	str	r3, [sp, #4]
 80003c6:	2301      	movs	r3, #1
 80003c8:	465a      	mov	r2, fp
 80003ca:	4093      	lsls	r3, r2
 80003cc:	9301      	str	r3, [sp, #4]
 80003ce:	2301      	movs	r3, #1
 80003d0:	4642      	mov	r2, r8
 80003d2:	4093      	lsls	r3, r2
 80003d4:	9300      	str	r3, [sp, #0]
 80003d6:	e028      	b.n	800042a <__udivmoddi4+0xca>
 80003d8:	4282      	cmp	r2, r0
 80003da:	d9cf      	bls.n	800037c <__udivmoddi4+0x1c>
 80003dc:	2200      	movs	r2, #0
 80003de:	2300      	movs	r3, #0
 80003e0:	9200      	str	r2, [sp, #0]
 80003e2:	9301      	str	r3, [sp, #4]
 80003e4:	9b0c      	ldr	r3, [sp, #48]	; 0x30
 80003e6:	2b00      	cmp	r3, #0
 80003e8:	d001      	beq.n	80003ee <__udivmoddi4+0x8e>
 80003ea:	601c      	str	r4, [r3, #0]
 80003ec:	605d      	str	r5, [r3, #4]
 80003ee:	9800      	ldr	r0, [sp, #0]
 80003f0:	9901      	ldr	r1, [sp, #4]
 80003f2:	b003      	add	sp, #12
 80003f4:	bcf0      	pop	{r4, r5, r6, r7}
 80003f6:	46bb      	mov	fp, r7
 80003f8:	46b2      	mov	sl, r6
 80003fa:	46a9      	mov	r9, r5
 80003fc:	46a0      	mov	r8, r4
 80003fe:	bdf0      	pop	{r4, r5, r6, r7, pc}
 8000400:	4642      	mov	r2, r8
 8000402:	2320      	movs	r3, #32
 8000404:	1a9b      	subs	r3, r3, r2
 8000406:	4652      	mov	r2, sl
 8000408:	40da      	lsrs	r2, r3
 800040a:	4641      	mov	r1, r8
 800040c:	0013      	movs	r3, r2
 800040e:	464a      	mov	r2, r9
 8000410:	408a      	lsls	r2, r1
 8000412:	0017      	movs	r7, r2
 8000414:	4642      	mov	r2, r8
 8000416:	431f      	orrs	r7, r3
 8000418:	4653      	mov	r3, sl
 800041a:	4093      	lsls	r3, r2
 800041c:	001e      	movs	r6, r3
 800041e:	42af      	cmp	r7, r5
 8000420:	d9c4      	bls.n	80003ac <__udivmoddi4+0x4c>
 8000422:	2200      	movs	r2, #0
 8000424:	2300      	movs	r3, #0
 8000426:	9200      	str	r2, [sp, #0]
 8000428:	9301      	str	r3, [sp, #4]
 800042a:	4643      	mov	r3, r8
 800042c:	2b00      	cmp	r3, #0
 800042e:	d0d9      	beq.n	80003e4 <__udivmoddi4+0x84>
 8000430:	07fb      	lsls	r3, r7, #31
 8000432:	0872      	lsrs	r2, r6, #1
 8000434:	431a      	orrs	r2, r3
 8000436:	4646      	mov	r6, r8
 8000438:	087b      	lsrs	r3, r7, #1
 800043a:	e00e      	b.n	800045a <__udivmoddi4+0xfa>
 800043c:	42ab      	cmp	r3, r5
 800043e:	d101      	bne.n	8000444 <__udivmoddi4+0xe4>
 8000440:	42a2      	cmp	r2, r4
 8000442:	d80c      	bhi.n	800045e <__udivmoddi4+0xfe>
 8000444:	1aa4      	subs	r4, r4, r2
 8000446:	419d      	sbcs	r5, r3
 8000448:	2001      	movs	r0, #1
 800044a:	1924      	adds	r4, r4, r4
 800044c:	416d      	adcs	r5, r5
 800044e:	2100      	movs	r1, #0
 8000450:	3e01      	subs	r6, #1
 8000452:	1824      	adds	r4, r4, r0
 8000454:	414d      	adcs	r5, r1
 8000456:	2e00      	cmp	r6, #0
 8000458:	d006      	beq.n	8000468 <__udivmoddi4+0x108>
 800045a:	42ab      	cmp	r3, r5
 800045c:	d9ee      	bls.n	800043c <__udivmoddi4+0xdc>
 800045e:	3e01      	subs	r6, #1
 8000460:	1924      	adds	r4, r4, r4
 8000462:	416d      	adcs	r5, r5
 8000464:	2e00      	cmp	r6, #0
 8000466:	d1f8      	bne.n	800045a <__udivmoddi4+0xfa>
 8000468:	9800      	ldr	r0, [sp, #0]
 800046a:	9901      	ldr	r1, [sp, #4]
 800046c:	465b      	mov	r3, fp
 800046e:	1900      	adds	r0, r0, r4
 8000470:	4169      	adcs	r1, r5
 8000472:	2b00      	cmp	r3, #0
 8000474:	db24      	blt.n	80004c0 <__udivmoddi4+0x160>
 8000476:	002b      	movs	r3, r5
 8000478:	465a      	mov	r2, fp
 800047a:	4644      	mov	r4, r8
 800047c:	40d3      	lsrs	r3, r2
 800047e:	002a      	movs	r2, r5
 8000480:	40e2      	lsrs	r2, r4
 8000482:	001c      	movs	r4, r3
 8000484:	465b      	mov	r3, fp
 8000486:	0015      	movs	r5, r2
 8000488:	2b00      	cmp	r3, #0
 800048a:	db2a      	blt.n	80004e2 <__udivmoddi4+0x182>
 800048c:	0026      	movs	r6, r4
 800048e:	409e      	lsls	r6, r3
 8000490:	0033      	movs	r3, r6
 8000492:	0026      	movs	r6, r4
 8000494:	4647      	mov	r7, r8
 8000496:	40be      	lsls	r6, r7
 8000498:	0032      	movs	r2, r6
 800049a:	1a80      	subs	r0, r0, r2
 800049c:	4199      	sbcs	r1, r3
 800049e:	9000      	str	r0, [sp, #0]
 80004a0:	9101      	str	r1, [sp, #4]
 80004a2:	e79f      	b.n	80003e4 <__udivmoddi4+0x84>
 80004a4:	42a3      	cmp	r3, r4
 80004a6:	d8bc      	bhi.n	8000422 <__udivmoddi4+0xc2>
 80004a8:	e783      	b.n	80003b2 <__udivmoddi4+0x52>
 80004aa:	4642      	mov	r2, r8
 80004ac:	2320      	movs	r3, #32
 80004ae:	2100      	movs	r1, #0
 80004b0:	1a9b      	subs	r3, r3, r2
 80004b2:	2200      	movs	r2, #0
 80004b4:	9100      	str	r1, [sp, #0]
 80004b6:	9201      	str	r2, [sp, #4]
 80004b8:	2201      	movs	r2, #1
 80004ba:	40da      	lsrs	r2, r3
 80004bc:	9201      	str	r2, [sp, #4]
 80004be:	e786      	b.n	80003ce <__udivmoddi4+0x6e>
 80004c0:	4642      	mov	r2, r8
 80004c2:	2320      	movs	r3, #32
 80004c4:	1a9b      	subs	r3, r3, r2
 80004c6:	002a      	movs	r2, r5
 80004c8:	4646      	mov	r6, r8
 80004ca:	409a      	lsls	r2, r3
 80004cc:	0023      	movs	r3, r4
 80004ce:	40f3      	lsrs	r3, r6
 80004d0:	4644      	mov	r4, r8
 80004d2:	4313      	orrs	r3, r2
 80004d4:	002a      	movs	r2, r5
 80004d6:	40e2      	lsrs	r2, r4
 80004d8:	001c      	movs	r4, r3
 80004da:	465b      	mov	r3, fp
 80004dc:	0015      	movs	r5, r2
 80004de:	2b00      	cmp	r3, #0
 80004e0:	dad4      	bge.n	800048c <__udivmoddi4+0x12c>
 80004e2:	4642      	mov	r2, r8
 80004e4:	002f      	movs	r7, r5
 80004e6:	2320      	movs	r3, #32
 80004e8:	0026      	movs	r6, r4
 80004ea:	4097      	lsls	r7, r2
 80004ec:	1a9b      	subs	r3, r3, r2
 80004ee:	40de      	lsrs	r6, r3
 80004f0:	003b      	movs	r3, r7
 80004f2:	4333      	orrs	r3, r6
 80004f4:	e7cd      	b.n	8000492 <__udivmoddi4+0x132>
 80004f6:	46c0      	nop			; (mov r8, r8)

080004f8 <__aeabi_dadd>:
 80004f8:	b5f0      	push	{r4, r5, r6, r7, lr}
 80004fa:	464f      	mov	r7, r9
 80004fc:	4646      	mov	r6, r8
 80004fe:	46d6      	mov	lr, sl
 8000500:	000d      	movs	r5, r1
 8000502:	0004      	movs	r4, r0
 8000504:	b5c0      	push	{r6, r7, lr}
 8000506:	001f      	movs	r7, r3
 8000508:	0011      	movs	r1, r2
 800050a:	0328      	lsls	r0, r5, #12
 800050c:	0f62      	lsrs	r2, r4, #29
 800050e:	0a40      	lsrs	r0, r0, #9
 8000510:	4310      	orrs	r0, r2
 8000512:	007a      	lsls	r2, r7, #1
 8000514:	0d52      	lsrs	r2, r2, #21
 8000516:	00e3      	lsls	r3, r4, #3
 8000518:	033c      	lsls	r4, r7, #12
 800051a:	4691      	mov	r9, r2
 800051c:	0a64      	lsrs	r4, r4, #9
 800051e:	0ffa      	lsrs	r2, r7, #31
 8000520:	0f4f      	lsrs	r7, r1, #29
 8000522:	006e      	lsls	r6, r5, #1
 8000524:	4327      	orrs	r7, r4
 8000526:	4692      	mov	sl, r2
 8000528:	46b8      	mov	r8, r7
 800052a:	0d76      	lsrs	r6, r6, #21
 800052c:	0fed      	lsrs	r5, r5, #31
 800052e:	00c9      	lsls	r1, r1, #3
 8000530:	4295      	cmp	r5, r2
 8000532:	d100      	bne.n	8000536 <__aeabi_dadd+0x3e>
 8000534:	e099      	b.n	800066a <__aeabi_dadd+0x172>
 8000536:	464c      	mov	r4, r9
 8000538:	1b34      	subs	r4, r6, r4
 800053a:	46a4      	mov	ip, r4
 800053c:	2c00      	cmp	r4, #0
 800053e:	dc00      	bgt.n	8000542 <__aeabi_dadd+0x4a>
 8000540:	e07c      	b.n	800063c <__aeabi_dadd+0x144>
 8000542:	464a      	mov	r2, r9
 8000544:	2a00      	cmp	r2, #0
 8000546:	d100      	bne.n	800054a <__aeabi_dadd+0x52>
 8000548:	e0b8      	b.n	80006bc <__aeabi_dadd+0x1c4>
 800054a:	4ac5      	ldr	r2, [pc, #788]	; (8000860 <__aeabi_dadd+0x368>)
 800054c:	4296      	cmp	r6, r2
 800054e:	d100      	bne.n	8000552 <__aeabi_dadd+0x5a>
 8000550:	e11c      	b.n	800078c <__aeabi_dadd+0x294>
 8000552:	2280      	movs	r2, #128	; 0x80
 8000554:	003c      	movs	r4, r7
 8000556:	0412      	lsls	r2, r2, #16
 8000558:	4314      	orrs	r4, r2
 800055a:	46a0      	mov	r8, r4
 800055c:	4662      	mov	r2, ip
 800055e:	2a38      	cmp	r2, #56	; 0x38
 8000560:	dd00      	ble.n	8000564 <__aeabi_dadd+0x6c>
 8000562:	e161      	b.n	8000828 <__aeabi_dadd+0x330>
 8000564:	2a1f      	cmp	r2, #31
 8000566:	dd00      	ble.n	800056a <__aeabi_dadd+0x72>
 8000568:	e1cc      	b.n	8000904 <__aeabi_dadd+0x40c>
 800056a:	4664      	mov	r4, ip
 800056c:	2220      	movs	r2, #32
 800056e:	1b12      	subs	r2, r2, r4
 8000570:	4644      	mov	r4, r8
 8000572:	4094      	lsls	r4, r2
 8000574:	000f      	movs	r7, r1
 8000576:	46a1      	mov	r9, r4
 8000578:	4664      	mov	r4, ip
 800057a:	4091      	lsls	r1, r2
 800057c:	40e7      	lsrs	r7, r4
 800057e:	464c      	mov	r4, r9
 8000580:	1e4a      	subs	r2, r1, #1
 8000582:	4191      	sbcs	r1, r2
 8000584:	433c      	orrs	r4, r7
 8000586:	4642      	mov	r2, r8
 8000588:	4321      	orrs	r1, r4
 800058a:	4664      	mov	r4, ip
 800058c:	40e2      	lsrs	r2, r4
 800058e:	1a80      	subs	r0, r0, r2
 8000590:	1a5c      	subs	r4, r3, r1
 8000592:	42a3      	cmp	r3, r4
 8000594:	419b      	sbcs	r3, r3
 8000596:	425f      	negs	r7, r3
 8000598:	1bc7      	subs	r7, r0, r7
 800059a:	023b      	lsls	r3, r7, #8
 800059c:	d400      	bmi.n	80005a0 <__aeabi_dadd+0xa8>
 800059e:	e0d0      	b.n	8000742 <__aeabi_dadd+0x24a>
 80005a0:	027f      	lsls	r7, r7, #9
 80005a2:	0a7f      	lsrs	r7, r7, #9
 80005a4:	2f00      	cmp	r7, #0
 80005a6:	d100      	bne.n	80005aa <__aeabi_dadd+0xb2>
 80005a8:	e0ff      	b.n	80007aa <__aeabi_dadd+0x2b2>
 80005aa:	0038      	movs	r0, r7
 80005ac:	f001 fd3c 	bl	8002028 <__clzsi2>
 80005b0:	0001      	movs	r1, r0
 80005b2:	3908      	subs	r1, #8
 80005b4:	2320      	movs	r3, #32
 80005b6:	0022      	movs	r2, r4
 80005b8:	1a5b      	subs	r3, r3, r1
 80005ba:	408f      	lsls	r7, r1
 80005bc:	40da      	lsrs	r2, r3
 80005be:	408c      	lsls	r4, r1
 80005c0:	4317      	orrs	r7, r2
 80005c2:	42b1      	cmp	r1, r6
 80005c4:	da00      	bge.n	80005c8 <__aeabi_dadd+0xd0>
 80005c6:	e0ff      	b.n	80007c8 <__aeabi_dadd+0x2d0>
 80005c8:	1b89      	subs	r1, r1, r6
 80005ca:	1c4b      	adds	r3, r1, #1
 80005cc:	2b1f      	cmp	r3, #31
 80005ce:	dd00      	ble.n	80005d2 <__aeabi_dadd+0xda>
 80005d0:	e0a8      	b.n	8000724 <__aeabi_dadd+0x22c>
 80005d2:	2220      	movs	r2, #32
 80005d4:	0039      	movs	r1, r7
 80005d6:	1ad2      	subs	r2, r2, r3
 80005d8:	0020      	movs	r0, r4
 80005da:	4094      	lsls	r4, r2
 80005dc:	4091      	lsls	r1, r2
 80005de:	40d8      	lsrs	r0, r3
 80005e0:	1e62      	subs	r2, r4, #1
 80005e2:	4194      	sbcs	r4, r2
 80005e4:	40df      	lsrs	r7, r3
 80005e6:	2600      	movs	r6, #0
 80005e8:	4301      	orrs	r1, r0
 80005ea:	430c      	orrs	r4, r1
 80005ec:	0763      	lsls	r3, r4, #29
 80005ee:	d009      	beq.n	8000604 <__aeabi_dadd+0x10c>
 80005f0:	230f      	movs	r3, #15
 80005f2:	4023      	ands	r3, r4
 80005f4:	2b04      	cmp	r3, #4
 80005f6:	d005      	beq.n	8000604 <__aeabi_dadd+0x10c>
 80005f8:	1d23      	adds	r3, r4, #4
 80005fa:	42a3      	cmp	r3, r4
 80005fc:	41a4      	sbcs	r4, r4
 80005fe:	4264      	negs	r4, r4
 8000600:	193f      	adds	r7, r7, r4
 8000602:	001c      	movs	r4, r3
 8000604:	023b      	lsls	r3, r7, #8
 8000606:	d400      	bmi.n	800060a <__aeabi_dadd+0x112>
 8000608:	e09e      	b.n	8000748 <__aeabi_dadd+0x250>
 800060a:	4b95      	ldr	r3, [pc, #596]	; (8000860 <__aeabi_dadd+0x368>)
 800060c:	3601      	adds	r6, #1
 800060e:	429e      	cmp	r6, r3
 8000610:	d100      	bne.n	8000614 <__aeabi_dadd+0x11c>
 8000612:	e0b7      	b.n	8000784 <__aeabi_dadd+0x28c>
 8000614:	4a93      	ldr	r2, [pc, #588]	; (8000864 <__aeabi_dadd+0x36c>)
 8000616:	08e4      	lsrs	r4, r4, #3
 8000618:	4017      	ands	r7, r2
 800061a:	077b      	lsls	r3, r7, #29
 800061c:	0571      	lsls	r1, r6, #21
 800061e:	027f      	lsls	r7, r7, #9
 8000620:	4323      	orrs	r3, r4
 8000622:	0b3f      	lsrs	r7, r7, #12
 8000624:	0d4a      	lsrs	r2, r1, #21
 8000626:	0512      	lsls	r2, r2, #20
 8000628:	433a      	orrs	r2, r7
 800062a:	07ed      	lsls	r5, r5, #31
 800062c:	432a      	orrs	r2, r5
 800062e:	0018      	movs	r0, r3
 8000630:	0011      	movs	r1, r2
 8000632:	bce0      	pop	{r5, r6, r7}
 8000634:	46ba      	mov	sl, r7
 8000636:	46b1      	mov	r9, r6
 8000638:	46a8      	mov	r8, r5
 800063a:	bdf0      	pop	{r4, r5, r6, r7, pc}
 800063c:	2c00      	cmp	r4, #0
 800063e:	d04b      	beq.n	80006d8 <__aeabi_dadd+0x1e0>
 8000640:	464c      	mov	r4, r9
 8000642:	1ba4      	subs	r4, r4, r6
 8000644:	46a4      	mov	ip, r4
 8000646:	2e00      	cmp	r6, #0
 8000648:	d000      	beq.n	800064c <__aeabi_dadd+0x154>
 800064a:	e123      	b.n	8000894 <__aeabi_dadd+0x39c>
 800064c:	0004      	movs	r4, r0
 800064e:	431c      	orrs	r4, r3
 8000650:	d100      	bne.n	8000654 <__aeabi_dadd+0x15c>
 8000652:	e1af      	b.n	80009b4 <__aeabi_dadd+0x4bc>
 8000654:	4662      	mov	r2, ip
 8000656:	1e54      	subs	r4, r2, #1
 8000658:	2a01      	cmp	r2, #1
 800065a:	d100      	bne.n	800065e <__aeabi_dadd+0x166>
 800065c:	e215      	b.n	8000a8a <__aeabi_dadd+0x592>
 800065e:	4d80      	ldr	r5, [pc, #512]	; (8000860 <__aeabi_dadd+0x368>)
 8000660:	45ac      	cmp	ip, r5
 8000662:	d100      	bne.n	8000666 <__aeabi_dadd+0x16e>
 8000664:	e1c8      	b.n	80009f8 <__aeabi_dadd+0x500>
 8000666:	46a4      	mov	ip, r4
 8000668:	e11b      	b.n	80008a2 <__aeabi_dadd+0x3aa>
 800066a:	464a      	mov	r2, r9
 800066c:	1ab2      	subs	r2, r6, r2
 800066e:	4694      	mov	ip, r2
 8000670:	2a00      	cmp	r2, #0
 8000672:	dc00      	bgt.n	8000676 <__aeabi_dadd+0x17e>
 8000674:	e0ac      	b.n	80007d0 <__aeabi_dadd+0x2d8>
 8000676:	464a      	mov	r2, r9
 8000678:	2a00      	cmp	r2, #0
 800067a:	d043      	beq.n	8000704 <__aeabi_dadd+0x20c>
 800067c:	4a78      	ldr	r2, [pc, #480]	; (8000860 <__aeabi_dadd+0x368>)
 800067e:	4296      	cmp	r6, r2
 8000680:	d100      	bne.n	8000684 <__aeabi_dadd+0x18c>
 8000682:	e1af      	b.n	80009e4 <__aeabi_dadd+0x4ec>
 8000684:	2280      	movs	r2, #128	; 0x80
 8000686:	003c      	movs	r4, r7
 8000688:	0412      	lsls	r2, r2, #16
 800068a:	4314      	orrs	r4, r2
 800068c:	46a0      	mov	r8, r4
 800068e:	4662      	mov	r2, ip
 8000690:	2a38      	cmp	r2, #56	; 0x38
 8000692:	dc67      	bgt.n	8000764 <__aeabi_dadd+0x26c>
 8000694:	2a1f      	cmp	r2, #31
 8000696:	dc00      	bgt.n	800069a <__aeabi_dadd+0x1a2>
 8000698:	e15f      	b.n	800095a <__aeabi_dadd+0x462>
 800069a:	4647      	mov	r7, r8
 800069c:	3a20      	subs	r2, #32
 800069e:	40d7      	lsrs	r7, r2
 80006a0:	4662      	mov	r2, ip
 80006a2:	2a20      	cmp	r2, #32
 80006a4:	d005      	beq.n	80006b2 <__aeabi_dadd+0x1ba>
 80006a6:	4664      	mov	r4, ip
 80006a8:	2240      	movs	r2, #64	; 0x40
 80006aa:	1b12      	subs	r2, r2, r4
 80006ac:	4644      	mov	r4, r8
 80006ae:	4094      	lsls	r4, r2
 80006b0:	4321      	orrs	r1, r4
 80006b2:	1e4a      	subs	r2, r1, #1
 80006b4:	4191      	sbcs	r1, r2
 80006b6:	000c      	movs	r4, r1
 80006b8:	433c      	orrs	r4, r7
 80006ba:	e057      	b.n	800076c <__aeabi_dadd+0x274>
 80006bc:	003a      	movs	r2, r7
 80006be:	430a      	orrs	r2, r1
 80006c0:	d100      	bne.n	80006c4 <__aeabi_dadd+0x1cc>
 80006c2:	e105      	b.n	80008d0 <__aeabi_dadd+0x3d8>
 80006c4:	0022      	movs	r2, r4
 80006c6:	3a01      	subs	r2, #1
 80006c8:	2c01      	cmp	r4, #1
 80006ca:	d100      	bne.n	80006ce <__aeabi_dadd+0x1d6>
 80006cc:	e182      	b.n	80009d4 <__aeabi_dadd+0x4dc>
 80006ce:	4c64      	ldr	r4, [pc, #400]	; (8000860 <__aeabi_dadd+0x368>)
 80006d0:	45a4      	cmp	ip, r4
 80006d2:	d05b      	beq.n	800078c <__aeabi_dadd+0x294>
 80006d4:	4694      	mov	ip, r2
 80006d6:	e741      	b.n	800055c <__aeabi_dadd+0x64>
 80006d8:	4c63      	ldr	r4, [pc, #396]	; (8000868 <__aeabi_dadd+0x370>)
 80006da:	1c77      	adds	r7, r6, #1
 80006dc:	4227      	tst	r7, r4
 80006de:	d000      	beq.n	80006e2 <__aeabi_dadd+0x1ea>
 80006e0:	e0c4      	b.n	800086c <__aeabi_dadd+0x374>
 80006e2:	0004      	movs	r4, r0
 80006e4:	431c      	orrs	r4, r3
 80006e6:	2e00      	cmp	r6, #0
 80006e8:	d000      	beq.n	80006ec <__aeabi_dadd+0x1f4>
 80006ea:	e169      	b.n	80009c0 <__aeabi_dadd+0x4c8>
 80006ec:	2c00      	cmp	r4, #0
 80006ee:	d100      	bne.n	80006f2 <__aeabi_dadd+0x1fa>
 80006f0:	e1bf      	b.n	8000a72 <__aeabi_dadd+0x57a>
 80006f2:	4644      	mov	r4, r8
 80006f4:	430c      	orrs	r4, r1
 80006f6:	d000      	beq.n	80006fa <__aeabi_dadd+0x202>
 80006f8:	e1d0      	b.n	8000a9c <__aeabi_dadd+0x5a4>
 80006fa:	0742      	lsls	r2, r0, #29
 80006fc:	08db      	lsrs	r3, r3, #3
 80006fe:	4313      	orrs	r3, r2
 8000700:	08c0      	lsrs	r0, r0, #3
 8000702:	e029      	b.n	8000758 <__aeabi_dadd+0x260>
 8000704:	003a      	movs	r2, r7
 8000706:	430a      	orrs	r2, r1
 8000708:	d100      	bne.n	800070c <__aeabi_dadd+0x214>
 800070a:	e170      	b.n	80009ee <__aeabi_dadd+0x4f6>
 800070c:	4662      	mov	r2, ip
 800070e:	4664      	mov	r4, ip
 8000710:	3a01      	subs	r2, #1
 8000712:	2c01      	cmp	r4, #1
 8000714:	d100      	bne.n	8000718 <__aeabi_dadd+0x220>
 8000716:	e0e0      	b.n	80008da <__aeabi_dadd+0x3e2>
 8000718:	4c51      	ldr	r4, [pc, #324]	; (8000860 <__aeabi_dadd+0x368>)
 800071a:	45a4      	cmp	ip, r4
 800071c:	d100      	bne.n	8000720 <__aeabi_dadd+0x228>
 800071e:	e161      	b.n	80009e4 <__aeabi_dadd+0x4ec>
 8000720:	4694      	mov	ip, r2
 8000722:	e7b4      	b.n	800068e <__aeabi_dadd+0x196>
 8000724:	003a      	movs	r2, r7
 8000726:	391f      	subs	r1, #31
 8000728:	40ca      	lsrs	r2, r1
 800072a:	0011      	movs	r1, r2
 800072c:	2b20      	cmp	r3, #32
 800072e:	d003      	beq.n	8000738 <__aeabi_dadd+0x240>
 8000730:	2240      	movs	r2, #64	; 0x40
 8000732:	1ad3      	subs	r3, r2, r3
 8000734:	409f      	lsls	r7, r3
 8000736:	433c      	orrs	r4, r7
 8000738:	1e63      	subs	r3, r4, #1
 800073a:	419c      	sbcs	r4, r3
 800073c:	2700      	movs	r7, #0
 800073e:	2600      	movs	r6, #0
 8000740:	430c      	orrs	r4, r1
 8000742:	0763      	lsls	r3, r4, #29
 8000744:	d000      	beq.n	8000748 <__aeabi_dadd+0x250>
 8000746:	e753      	b.n	80005f0 <__aeabi_dadd+0xf8>
 8000748:	46b4      	mov	ip, r6
 800074a:	08e4      	lsrs	r4, r4, #3
 800074c:	077b      	lsls	r3, r7, #29
 800074e:	4323      	orrs	r3, r4
 8000750:	08f8      	lsrs	r0, r7, #3
 8000752:	4a43      	ldr	r2, [pc, #268]	; (8000860 <__aeabi_dadd+0x368>)
 8000754:	4594      	cmp	ip, r2
 8000756:	d01d      	beq.n	8000794 <__aeabi_dadd+0x29c>
 8000758:	4662      	mov	r2, ip
 800075a:	0307      	lsls	r7, r0, #12
 800075c:	0552      	lsls	r2, r2, #21
 800075e:	0b3f      	lsrs	r7, r7, #12
 8000760:	0d52      	lsrs	r2, r2, #21
 8000762:	e760      	b.n	8000626 <__aeabi_dadd+0x12e>
 8000764:	4644      	mov	r4, r8
 8000766:	430c      	orrs	r4, r1
 8000768:	1e62      	subs	r2, r4, #1
 800076a:	4194      	sbcs	r4, r2
 800076c:	18e4      	adds	r4, r4, r3
 800076e:	429c      	cmp	r4, r3
 8000770:	419b      	sbcs	r3, r3
 8000772:	425f      	negs	r7, r3
 8000774:	183f      	adds	r7, r7, r0
 8000776:	023b      	lsls	r3, r7, #8
 8000778:	d5e3      	bpl.n	8000742 <__aeabi_dadd+0x24a>
 800077a:	4b39      	ldr	r3, [pc, #228]	; (8000860 <__aeabi_dadd+0x368>)
 800077c:	3601      	adds	r6, #1
 800077e:	429e      	cmp	r6, r3
 8000780:	d000      	beq.n	8000784 <__aeabi_dadd+0x28c>
 8000782:	e0b5      	b.n	80008f0 <__aeabi_dadd+0x3f8>
 8000784:	0032      	movs	r2, r6
 8000786:	2700      	movs	r7, #0
 8000788:	2300      	movs	r3, #0
 800078a:	e74c      	b.n	8000626 <__aeabi_dadd+0x12e>
 800078c:	0742      	lsls	r2, r0, #29
 800078e:	08db      	lsrs	r3, r3, #3
 8000790:	4313      	orrs	r3, r2
 8000792:	08c0      	lsrs	r0, r0, #3
 8000794:	001a      	movs	r2, r3
 8000796:	4302      	orrs	r2, r0
 8000798:	d100      	bne.n	800079c <__aeabi_dadd+0x2a4>
 800079a:	e1e1      	b.n	8000b60 <__aeabi_dadd+0x668>
 800079c:	2780      	movs	r7, #128	; 0x80
 800079e:	033f      	lsls	r7, r7, #12
 80007a0:	4307      	orrs	r7, r0
 80007a2:	033f      	lsls	r7, r7, #12
 80007a4:	4a2e      	ldr	r2, [pc, #184]	; (8000860 <__aeabi_dadd+0x368>)
 80007a6:	0b3f      	lsrs	r7, r7, #12
 80007a8:	e73d      	b.n	8000626 <__aeabi_dadd+0x12e>
 80007aa:	0020      	movs	r0, r4
 80007ac:	f001 fc3c 	bl	8002028 <__clzsi2>
 80007b0:	0001      	movs	r1, r0
 80007b2:	3118      	adds	r1, #24
 80007b4:	291f      	cmp	r1, #31
 80007b6:	dc00      	bgt.n	80007ba <__aeabi_dadd+0x2c2>
 80007b8:	e6fc      	b.n	80005b4 <__aeabi_dadd+0xbc>
 80007ba:	3808      	subs	r0, #8
 80007bc:	4084      	lsls	r4, r0
 80007be:	0027      	movs	r7, r4
 80007c0:	2400      	movs	r4, #0
 80007c2:	42b1      	cmp	r1, r6
 80007c4:	db00      	blt.n	80007c8 <__aeabi_dadd+0x2d0>
 80007c6:	e6ff      	b.n	80005c8 <__aeabi_dadd+0xd0>
 80007c8:	4a26      	ldr	r2, [pc, #152]	; (8000864 <__aeabi_dadd+0x36c>)
 80007ca:	1a76      	subs	r6, r6, r1
 80007cc:	4017      	ands	r7, r2
 80007ce:	e70d      	b.n	80005ec <__aeabi_dadd+0xf4>
 80007d0:	2a00      	cmp	r2, #0
 80007d2:	d02f      	beq.n	8000834 <__aeabi_dadd+0x33c>
 80007d4:	464a      	mov	r2, r9
 80007d6:	1b92      	subs	r2, r2, r6
 80007d8:	4694      	mov	ip, r2
 80007da:	2e00      	cmp	r6, #0
 80007dc:	d100      	bne.n	80007e0 <__aeabi_dadd+0x2e8>
 80007de:	e0ad      	b.n	800093c <__aeabi_dadd+0x444>
 80007e0:	4a1f      	ldr	r2, [pc, #124]	; (8000860 <__aeabi_dadd+0x368>)
 80007e2:	4591      	cmp	r9, r2
 80007e4:	d100      	bne.n	80007e8 <__aeabi_dadd+0x2f0>
 80007e6:	e10f      	b.n	8000a08 <__aeabi_dadd+0x510>
 80007e8:	2280      	movs	r2, #128	; 0x80
 80007ea:	0412      	lsls	r2, r2, #16
 80007ec:	4310      	orrs	r0, r2
 80007ee:	4662      	mov	r2, ip
 80007f0:	2a38      	cmp	r2, #56	; 0x38
 80007f2:	dd00      	ble.n	80007f6 <__aeabi_dadd+0x2fe>
 80007f4:	e10f      	b.n	8000a16 <__aeabi_dadd+0x51e>
 80007f6:	2a1f      	cmp	r2, #31
 80007f8:	dd00      	ble.n	80007fc <__aeabi_dadd+0x304>
 80007fa:	e180      	b.n	8000afe <__aeabi_dadd+0x606>
 80007fc:	4664      	mov	r4, ip
 80007fe:	2220      	movs	r2, #32
 8000800:	001e      	movs	r6, r3
 8000802:	1b12      	subs	r2, r2, r4
 8000804:	4667      	mov	r7, ip
 8000806:	0004      	movs	r4, r0
 8000808:	4093      	lsls	r3, r2
 800080a:	4094      	lsls	r4, r2
 800080c:	40fe      	lsrs	r6, r7
 800080e:	1e5a      	subs	r2, r3, #1
 8000810:	4193      	sbcs	r3, r2
 8000812:	40f8      	lsrs	r0, r7
 8000814:	4334      	orrs	r4, r6
 8000816:	431c      	orrs	r4, r3
 8000818:	4480      	add	r8, r0
 800081a:	1864      	adds	r4, r4, r1
 800081c:	428c      	cmp	r4, r1
 800081e:	41bf      	sbcs	r7, r7
 8000820:	427f      	negs	r7, r7
 8000822:	464e      	mov	r6, r9
 8000824:	4447      	add	r7, r8
 8000826:	e7a6      	b.n	8000776 <__aeabi_dadd+0x27e>
 8000828:	4642      	mov	r2, r8
 800082a:	430a      	orrs	r2, r1
 800082c:	0011      	movs	r1, r2
 800082e:	1e4a      	subs	r2, r1, #1
 8000830:	4191      	sbcs	r1, r2
 8000832:	e6ad      	b.n	8000590 <__aeabi_dadd+0x98>
 8000834:	4c0c      	ldr	r4, [pc, #48]	; (8000868 <__aeabi_dadd+0x370>)
 8000836:	1c72      	adds	r2, r6, #1
 8000838:	4222      	tst	r2, r4
 800083a:	d000      	beq.n	800083e <__aeabi_dadd+0x346>
 800083c:	e0a1      	b.n	8000982 <__aeabi_dadd+0x48a>
 800083e:	0002      	movs	r2, r0
 8000840:	431a      	orrs	r2, r3
 8000842:	2e00      	cmp	r6, #0
 8000844:	d000      	beq.n	8000848 <__aeabi_dadd+0x350>
 8000846:	e0fa      	b.n	8000a3e <__aeabi_dadd+0x546>
 8000848:	2a00      	cmp	r2, #0
 800084a:	d100      	bne.n	800084e <__aeabi_dadd+0x356>
 800084c:	e145      	b.n	8000ada <__aeabi_dadd+0x5e2>
 800084e:	003a      	movs	r2, r7
 8000850:	430a      	orrs	r2, r1
 8000852:	d000      	beq.n	8000856 <__aeabi_dadd+0x35e>
 8000854:	e146      	b.n	8000ae4 <__aeabi_dadd+0x5ec>
 8000856:	0742      	lsls	r2, r0, #29
 8000858:	08db      	lsrs	r3, r3, #3
 800085a:	4313      	orrs	r3, r2
 800085c:	08c0      	lsrs	r0, r0, #3
 800085e:	e77b      	b.n	8000758 <__aeabi_dadd+0x260>
 8000860:	000007ff 	.word	0x000007ff
 8000864:	ff7fffff 	.word	0xff7fffff
 8000868:	000007fe 	.word	0x000007fe
 800086c:	4647      	mov	r7, r8
 800086e:	1a5c      	subs	r4, r3, r1
 8000870:	1bc2      	subs	r2, r0, r7
 8000872:	42a3      	cmp	r3, r4
 8000874:	41bf      	sbcs	r7, r7
 8000876:	427f      	negs	r7, r7
 8000878:	46b9      	mov	r9, r7
 800087a:	0017      	movs	r7, r2
 800087c:	464a      	mov	r2, r9
 800087e:	1abf      	subs	r7, r7, r2
 8000880:	023a      	lsls	r2, r7, #8
 8000882:	d500      	bpl.n	8000886 <__aeabi_dadd+0x38e>
 8000884:	e08d      	b.n	80009a2 <__aeabi_dadd+0x4aa>
 8000886:	0023      	movs	r3, r4
 8000888:	433b      	orrs	r3, r7
 800088a:	d000      	beq.n	800088e <__aeabi_dadd+0x396>
 800088c:	e68a      	b.n	80005a4 <__aeabi_dadd+0xac>
 800088e:	2000      	movs	r0, #0
 8000890:	2500      	movs	r5, #0
 8000892:	e761      	b.n	8000758 <__aeabi_dadd+0x260>
 8000894:	4cb4      	ldr	r4, [pc, #720]	; (8000b68 <__aeabi_dadd+0x670>)
 8000896:	45a1      	cmp	r9, r4
 8000898:	d100      	bne.n	800089c <__aeabi_dadd+0x3a4>
 800089a:	e0ad      	b.n	80009f8 <__aeabi_dadd+0x500>
 800089c:	2480      	movs	r4, #128	; 0x80
 800089e:	0424      	lsls	r4, r4, #16
 80008a0:	4320      	orrs	r0, r4
 80008a2:	4664      	mov	r4, ip
 80008a4:	2c38      	cmp	r4, #56	; 0x38
 80008a6:	dc3d      	bgt.n	8000924 <__aeabi_dadd+0x42c>
 80008a8:	4662      	mov	r2, ip
 80008aa:	2c1f      	cmp	r4, #31
 80008ac:	dd00      	ble.n	80008b0 <__aeabi_dadd+0x3b8>
 80008ae:	e0b7      	b.n	8000a20 <__aeabi_dadd+0x528>
 80008b0:	2520      	movs	r5, #32
 80008b2:	001e      	movs	r6, r3
 80008b4:	1b2d      	subs	r5, r5, r4
 80008b6:	0004      	movs	r4, r0
 80008b8:	40ab      	lsls	r3, r5
 80008ba:	40ac      	lsls	r4, r5
 80008bc:	40d6      	lsrs	r6, r2
 80008be:	40d0      	lsrs	r0, r2
 80008c0:	4642      	mov	r2, r8
 80008c2:	1e5d      	subs	r5, r3, #1
 80008c4:	41ab      	sbcs	r3, r5
 80008c6:	4334      	orrs	r4, r6
 80008c8:	1a12      	subs	r2, r2, r0
 80008ca:	4690      	mov	r8, r2
 80008cc:	4323      	orrs	r3, r4
 80008ce:	e02c      	b.n	800092a <__aeabi_dadd+0x432>
 80008d0:	0742      	lsls	r2, r0, #29
 80008d2:	08db      	lsrs	r3, r3, #3
 80008d4:	4313      	orrs	r3, r2
 80008d6:	08c0      	lsrs	r0, r0, #3
 80008d8:	e73b      	b.n	8000752 <__aeabi_dadd+0x25a>
 80008da:	185c      	adds	r4, r3, r1
 80008dc:	429c      	cmp	r4, r3
 80008de:	419b      	sbcs	r3, r3
 80008e0:	4440      	add	r0, r8
 80008e2:	425b      	negs	r3, r3
 80008e4:	18c7      	adds	r7, r0, r3
 80008e6:	2601      	movs	r6, #1
 80008e8:	023b      	lsls	r3, r7, #8
 80008ea:	d400      	bmi.n	80008ee <__aeabi_dadd+0x3f6>
 80008ec:	e729      	b.n	8000742 <__aeabi_dadd+0x24a>
 80008ee:	2602      	movs	r6, #2
 80008f0:	4a9e      	ldr	r2, [pc, #632]	; (8000b6c <__aeabi_dadd+0x674>)
 80008f2:	0863      	lsrs	r3, r4, #1
 80008f4:	4017      	ands	r7, r2
 80008f6:	2201      	movs	r2, #1
 80008f8:	4014      	ands	r4, r2
 80008fa:	431c      	orrs	r4, r3
 80008fc:	07fb      	lsls	r3, r7, #31
 80008fe:	431c      	orrs	r4, r3
 8000900:	087f      	lsrs	r7, r7, #1
 8000902:	e673      	b.n	80005ec <__aeabi_dadd+0xf4>
 8000904:	4644      	mov	r4, r8
 8000906:	3a20      	subs	r2, #32
 8000908:	40d4      	lsrs	r4, r2
 800090a:	4662      	mov	r2, ip
 800090c:	2a20      	cmp	r2, #32
 800090e:	d005      	beq.n	800091c <__aeabi_dadd+0x424>
 8000910:	4667      	mov	r7, ip
 8000912:	2240      	movs	r2, #64	; 0x40
 8000914:	1bd2      	subs	r2, r2, r7
 8000916:	4647      	mov	r7, r8
 8000918:	4097      	lsls	r7, r2
 800091a:	4339      	orrs	r1, r7
 800091c:	1e4a      	subs	r2, r1, #1
 800091e:	4191      	sbcs	r1, r2
 8000920:	4321      	orrs	r1, r4
 8000922:	e635      	b.n	8000590 <__aeabi_dadd+0x98>
 8000924:	4303      	orrs	r3, r0
 8000926:	1e58      	subs	r0, r3, #1
 8000928:	4183      	sbcs	r3, r0
 800092a:	1acc      	subs	r4, r1, r3
 800092c:	42a1      	cmp	r1, r4
 800092e:	41bf      	sbcs	r7, r7
 8000930:	4643      	mov	r3, r8
 8000932:	427f      	negs	r7, r7
 8000934:	4655      	mov	r5, sl
 8000936:	464e      	mov	r6, r9
 8000938:	1bdf      	subs	r7, r3, r7
 800093a:	e62e      	b.n	800059a <__aeabi_dadd+0xa2>
 800093c:	0002      	movs	r2, r0
 800093e:	431a      	orrs	r2, r3
 8000940:	d100      	bne.n	8000944 <__aeabi_dadd+0x44c>
 8000942:	e0bd      	b.n	8000ac0 <__aeabi_dadd+0x5c8>
 8000944:	4662      	mov	r2, ip
 8000946:	4664      	mov	r4, ip
 8000948:	3a01      	subs	r2, #1
 800094a:	2c01      	cmp	r4, #1
 800094c:	d100      	bne.n	8000950 <__aeabi_dadd+0x458>
 800094e:	e0e5      	b.n	8000b1c <__aeabi_dadd+0x624>
 8000950:	4c85      	ldr	r4, [pc, #532]	; (8000b68 <__aeabi_dadd+0x670>)
 8000952:	45a4      	cmp	ip, r4
 8000954:	d058      	beq.n	8000a08 <__aeabi_dadd+0x510>
 8000956:	4694      	mov	ip, r2
 8000958:	e749      	b.n	80007ee <__aeabi_dadd+0x2f6>
 800095a:	4664      	mov	r4, ip
 800095c:	2220      	movs	r2, #32
 800095e:	1b12      	subs	r2, r2, r4
 8000960:	4644      	mov	r4, r8
 8000962:	4094      	lsls	r4, r2
 8000964:	000f      	movs	r7, r1
 8000966:	46a1      	mov	r9, r4
 8000968:	4664      	mov	r4, ip
 800096a:	4091      	lsls	r1, r2
 800096c:	40e7      	lsrs	r7, r4
 800096e:	464c      	mov	r4, r9
 8000970:	1e4a      	subs	r2, r1, #1
 8000972:	4191      	sbcs	r1, r2
 8000974:	433c      	orrs	r4, r7
 8000976:	4642      	mov	r2, r8
 8000978:	430c      	orrs	r4, r1
 800097a:	4661      	mov	r1, ip
 800097c:	40ca      	lsrs	r2, r1
 800097e:	1880      	adds	r0, r0, r2
 8000980:	e6f4      	b.n	800076c <__aeabi_dadd+0x274>
 8000982:	4c79      	ldr	r4, [pc, #484]	; (8000b68 <__aeabi_dadd+0x670>)
 8000984:	42a2      	cmp	r2, r4
 8000986:	d100      	bne.n	800098a <__aeabi_dadd+0x492>
 8000988:	e6fd      	b.n	8000786 <__aeabi_dadd+0x28e>
 800098a:	1859      	adds	r1, r3, r1
 800098c:	4299      	cmp	r1, r3
 800098e:	419b      	sbcs	r3, r3
 8000990:	4440      	add	r0, r8
 8000992:	425f      	negs	r7, r3
 8000994:	19c7      	adds	r7, r0, r7
 8000996:	07fc      	lsls	r4, r7, #31
 8000998:	0849      	lsrs	r1, r1, #1
 800099a:	0016      	movs	r6, r2
 800099c:	430c      	orrs	r4, r1
 800099e:	087f      	lsrs	r7, r7, #1
 80009a0:	e6cf      	b.n	8000742 <__aeabi_dadd+0x24a>
 80009a2:	1acc      	subs	r4, r1, r3
 80009a4:	42a1      	cmp	r1, r4
 80009a6:	41bf      	sbcs	r7, r7
 80009a8:	4643      	mov	r3, r8
 80009aa:	427f      	negs	r7, r7
 80009ac:	1a18      	subs	r0, r3, r0
 80009ae:	4655      	mov	r5, sl
 80009b0:	1bc7      	subs	r7, r0, r7
 80009b2:	e5f7      	b.n	80005a4 <__aeabi_dadd+0xac>
 80009b4:	08c9      	lsrs	r1, r1, #3
 80009b6:	077b      	lsls	r3, r7, #29
 80009b8:	4655      	mov	r5, sl
 80009ba:	430b      	orrs	r3, r1
 80009bc:	08f8      	lsrs	r0, r7, #3
 80009be:	e6c8      	b.n	8000752 <__aeabi_dadd+0x25a>
 80009c0:	2c00      	cmp	r4, #0
 80009c2:	d000      	beq.n	80009c6 <__aeabi_dadd+0x4ce>
 80009c4:	e081      	b.n	8000aca <__aeabi_dadd+0x5d2>
 80009c6:	4643      	mov	r3, r8
 80009c8:	430b      	orrs	r3, r1
 80009ca:	d115      	bne.n	80009f8 <__aeabi_dadd+0x500>
 80009cc:	2080      	movs	r0, #128	; 0x80
 80009ce:	2500      	movs	r5, #0
 80009d0:	0300      	lsls	r0, r0, #12
 80009d2:	e6e3      	b.n	800079c <__aeabi_dadd+0x2a4>
 80009d4:	1a5c      	subs	r4, r3, r1
 80009d6:	42a3      	cmp	r3, r4
 80009d8:	419b      	sbcs	r3, r3
 80009da:	1bc7      	subs	r7, r0, r7
 80009dc:	425b      	negs	r3, r3
 80009de:	2601      	movs	r6, #1
 80009e0:	1aff      	subs	r7, r7, r3
 80009e2:	e5da      	b.n	800059a <__aeabi_dadd+0xa2>
 80009e4:	0742      	lsls	r2, r0, #29
 80009e6:	08db      	lsrs	r3, r3, #3
 80009e8:	4313      	orrs	r3, r2
 80009ea:	08c0      	lsrs	r0, r0, #3
 80009ec:	e6d2      	b.n	8000794 <__aeabi_dadd+0x29c>
 80009ee:	0742      	lsls	r2, r0, #29
 80009f0:	08db      	lsrs	r3, r3, #3
 80009f2:	4313      	orrs	r3, r2
 80009f4:	08c0      	lsrs	r0, r0, #3
 80009f6:	e6ac      	b.n	8000752 <__aeabi_dadd+0x25a>
 80009f8:	4643      	mov	r3, r8
 80009fa:	4642      	mov	r2, r8
 80009fc:	08c9      	lsrs	r1, r1, #3
 80009fe:	075b      	lsls	r3, r3, #29
 8000a00:	4655      	mov	r5, sl
 8000a02:	430b      	orrs	r3, r1
 8000a04:	08d0      	lsrs	r0, r2, #3
 8000a06:	e6c5      	b.n	8000794 <__aeabi_dadd+0x29c>
 8000a08:	4643      	mov	r3, r8
 8000a0a:	4642      	mov	r2, r8
 8000a0c:	075b      	lsls	r3, r3, #29
 8000a0e:	08c9      	lsrs	r1, r1, #3
 8000a10:	430b      	orrs	r3, r1
 8000a12:	08d0      	lsrs	r0, r2, #3
 8000a14:	e6be      	b.n	8000794 <__aeabi_dadd+0x29c>
 8000a16:	4303      	orrs	r3, r0
 8000a18:	001c      	movs	r4, r3
 8000a1a:	1e63      	subs	r3, r4, #1
 8000a1c:	419c      	sbcs	r4, r3
 8000a1e:	e6fc      	b.n	800081a <__aeabi_dadd+0x322>
 8000a20:	0002      	movs	r2, r0
 8000a22:	3c20      	subs	r4, #32
 8000a24:	40e2      	lsrs	r2, r4
 8000a26:	0014      	movs	r4, r2
 8000a28:	4662      	mov	r2, ip
 8000a2a:	2a20      	cmp	r2, #32
 8000a2c:	d003      	beq.n	8000a36 <__aeabi_dadd+0x53e>
 8000a2e:	2540      	movs	r5, #64	; 0x40
 8000a30:	1aad      	subs	r5, r5, r2
 8000a32:	40a8      	lsls	r0, r5
 8000a34:	4303      	orrs	r3, r0
 8000a36:	1e58      	subs	r0, r3, #1
 8000a38:	4183      	sbcs	r3, r0
 8000a3a:	4323      	orrs	r3, r4
 8000a3c:	e775      	b.n	800092a <__aeabi_dadd+0x432>
 8000a3e:	2a00      	cmp	r2, #0
 8000a40:	d0e2      	beq.n	8000a08 <__aeabi_dadd+0x510>
 8000a42:	003a      	movs	r2, r7
 8000a44:	430a      	orrs	r2, r1
 8000a46:	d0cd      	beq.n	80009e4 <__aeabi_dadd+0x4ec>
 8000a48:	0742      	lsls	r2, r0, #29
 8000a4a:	08db      	lsrs	r3, r3, #3
 8000a4c:	4313      	orrs	r3, r2
 8000a4e:	2280      	movs	r2, #128	; 0x80
 8000a50:	08c0      	lsrs	r0, r0, #3
 8000a52:	0312      	lsls	r2, r2, #12
 8000a54:	4210      	tst	r0, r2
 8000a56:	d006      	beq.n	8000a66 <__aeabi_dadd+0x56e>
 8000a58:	08fc      	lsrs	r4, r7, #3
 8000a5a:	4214      	tst	r4, r2
 8000a5c:	d103      	bne.n	8000a66 <__aeabi_dadd+0x56e>
 8000a5e:	0020      	movs	r0, r4
 8000a60:	08cb      	lsrs	r3, r1, #3
 8000a62:	077a      	lsls	r2, r7, #29
 8000a64:	4313      	orrs	r3, r2
 8000a66:	0f5a      	lsrs	r2, r3, #29
 8000a68:	00db      	lsls	r3, r3, #3
 8000a6a:	0752      	lsls	r2, r2, #29
 8000a6c:	08db      	lsrs	r3, r3, #3
 8000a6e:	4313      	orrs	r3, r2
 8000a70:	e690      	b.n	8000794 <__aeabi_dadd+0x29c>
 8000a72:	4643      	mov	r3, r8
 8000a74:	430b      	orrs	r3, r1
 8000a76:	d100      	bne.n	8000a7a <__aeabi_dadd+0x582>
 8000a78:	e709      	b.n	800088e <__aeabi_dadd+0x396>
 8000a7a:	4643      	mov	r3, r8
 8000a7c:	4642      	mov	r2, r8
 8000a7e:	08c9      	lsrs	r1, r1, #3
 8000a80:	075b      	lsls	r3, r3, #29
 8000a82:	4655      	mov	r5, sl
 8000a84:	430b      	orrs	r3, r1
 8000a86:	08d0      	lsrs	r0, r2, #3
 8000a88:	e666      	b.n	8000758 <__aeabi_dadd+0x260>
 8000a8a:	1acc      	subs	r4, r1, r3
 8000a8c:	42a1      	cmp	r1, r4
 8000a8e:	4189      	sbcs	r1, r1
 8000a90:	1a3f      	subs	r7, r7, r0
 8000a92:	4249      	negs	r1, r1
 8000a94:	4655      	mov	r5, sl
 8000a96:	2601      	movs	r6, #1
 8000a98:	1a7f      	subs	r7, r7, r1
 8000a9a:	e57e      	b.n	800059a <__aeabi_dadd+0xa2>
 8000a9c:	4642      	mov	r2, r8
 8000a9e:	1a5c      	subs	r4, r3, r1
 8000aa0:	1a87      	subs	r7, r0, r2
 8000aa2:	42a3      	cmp	r3, r4
 8000aa4:	4192      	sbcs	r2, r2
 8000aa6:	4252      	negs	r2, r2
 8000aa8:	1abf      	subs	r7, r7, r2
 8000aaa:	023a      	lsls	r2, r7, #8
 8000aac:	d53d      	bpl.n	8000b2a <__aeabi_dadd+0x632>
 8000aae:	1acc      	subs	r4, r1, r3
 8000ab0:	42a1      	cmp	r1, r4
 8000ab2:	4189      	sbcs	r1, r1
 8000ab4:	4643      	mov	r3, r8
 8000ab6:	4249      	negs	r1, r1
 8000ab8:	1a1f      	subs	r7, r3, r0
 8000aba:	4655      	mov	r5, sl
 8000abc:	1a7f      	subs	r7, r7, r1
 8000abe:	e595      	b.n	80005ec <__aeabi_dadd+0xf4>
 8000ac0:	077b      	lsls	r3, r7, #29
 8000ac2:	08c9      	lsrs	r1, r1, #3
 8000ac4:	430b      	orrs	r3, r1
 8000ac6:	08f8      	lsrs	r0, r7, #3
 8000ac8:	e643      	b.n	8000752 <__aeabi_dadd+0x25a>
 8000aca:	4644      	mov	r4, r8
 8000acc:	08db      	lsrs	r3, r3, #3
 8000ace:	430c      	orrs	r4, r1
 8000ad0:	d130      	bne.n	8000b34 <__aeabi_dadd+0x63c>
 8000ad2:	0742      	lsls	r2, r0, #29
 8000ad4:	4313      	orrs	r3, r2
 8000ad6:	08c0      	lsrs	r0, r0, #3
 8000ad8:	e65c      	b.n	8000794 <__aeabi_dadd+0x29c>
 8000ada:	077b      	lsls	r3, r7, #29
 8000adc:	08c9      	lsrs	r1, r1, #3
 8000ade:	430b      	orrs	r3, r1
 8000ae0:	08f8      	lsrs	r0, r7, #3
 8000ae2:	e639      	b.n	8000758 <__aeabi_dadd+0x260>
 8000ae4:	185c      	adds	r4, r3, r1
 8000ae6:	429c      	cmp	r4, r3
 8000ae8:	419b      	sbcs	r3, r3
 8000aea:	4440      	add	r0, r8
 8000aec:	425b      	negs	r3, r3
 8000aee:	18c7      	adds	r7, r0, r3
 8000af0:	023b      	lsls	r3, r7, #8
 8000af2:	d400      	bmi.n	8000af6 <__aeabi_dadd+0x5fe>
 8000af4:	e625      	b.n	8000742 <__aeabi_dadd+0x24a>
 8000af6:	4b1d      	ldr	r3, [pc, #116]	; (8000b6c <__aeabi_dadd+0x674>)
 8000af8:	2601      	movs	r6, #1
 8000afa:	401f      	ands	r7, r3
 8000afc:	e621      	b.n	8000742 <__aeabi_dadd+0x24a>
 8000afe:	0004      	movs	r4, r0
 8000b00:	3a20      	subs	r2, #32
 8000b02:	40d4      	lsrs	r4, r2
 8000b04:	4662      	mov	r2, ip
 8000b06:	2a20      	cmp	r2, #32
 8000b08:	d004      	beq.n	8000b14 <__aeabi_dadd+0x61c>
 8000b0a:	2240      	movs	r2, #64	; 0x40
 8000b0c:	4666      	mov	r6, ip
 8000b0e:	1b92      	subs	r2, r2, r6
 8000b10:	4090      	lsls	r0, r2
 8000b12:	4303      	orrs	r3, r0
 8000b14:	1e5a      	subs	r2, r3, #1
 8000b16:	4193      	sbcs	r3, r2
 8000b18:	431c      	orrs	r4, r3
 8000b1a:	e67e      	b.n	800081a <__aeabi_dadd+0x322>
 8000b1c:	185c      	adds	r4, r3, r1
 8000b1e:	428c      	cmp	r4, r1
 8000b20:	4189      	sbcs	r1, r1
 8000b22:	4440      	add	r0, r8
 8000b24:	4249      	negs	r1, r1
 8000b26:	1847      	adds	r7, r0, r1
 8000b28:	e6dd      	b.n	80008e6 <__aeabi_dadd+0x3ee>
 8000b2a:	0023      	movs	r3, r4
 8000b2c:	433b      	orrs	r3, r7
 8000b2e:	d100      	bne.n	8000b32 <__aeabi_dadd+0x63a>
 8000b30:	e6ad      	b.n	800088e <__aeabi_dadd+0x396>
 8000b32:	e606      	b.n	8000742 <__aeabi_dadd+0x24a>
 8000b34:	0744      	lsls	r4, r0, #29
 8000b36:	4323      	orrs	r3, r4
 8000b38:	2480      	movs	r4, #128	; 0x80
 8000b3a:	08c0      	lsrs	r0, r0, #3
 8000b3c:	0324      	lsls	r4, r4, #12
 8000b3e:	4220      	tst	r0, r4
 8000b40:	d008      	beq.n	8000b54 <__aeabi_dadd+0x65c>
 8000b42:	4642      	mov	r2, r8
 8000b44:	08d6      	lsrs	r6, r2, #3
 8000b46:	4226      	tst	r6, r4
 8000b48:	d104      	bne.n	8000b54 <__aeabi_dadd+0x65c>
 8000b4a:	4655      	mov	r5, sl
 8000b4c:	0030      	movs	r0, r6
 8000b4e:	08cb      	lsrs	r3, r1, #3
 8000b50:	0751      	lsls	r1, r2, #29
 8000b52:	430b      	orrs	r3, r1
 8000b54:	0f5a      	lsrs	r2, r3, #29
 8000b56:	00db      	lsls	r3, r3, #3
 8000b58:	08db      	lsrs	r3, r3, #3
 8000b5a:	0752      	lsls	r2, r2, #29
 8000b5c:	4313      	orrs	r3, r2
 8000b5e:	e619      	b.n	8000794 <__aeabi_dadd+0x29c>
 8000b60:	2300      	movs	r3, #0
 8000b62:	4a01      	ldr	r2, [pc, #4]	; (8000b68 <__aeabi_dadd+0x670>)
 8000b64:	001f      	movs	r7, r3
 8000b66:	e55e      	b.n	8000626 <__aeabi_dadd+0x12e>
 8000b68:	000007ff 	.word	0x000007ff
 8000b6c:	ff7fffff 	.word	0xff7fffff

08000b70 <__aeabi_ddiv>:
 8000b70:	b5f0      	push	{r4, r5, r6, r7, lr}
 8000b72:	4657      	mov	r7, sl
 8000b74:	464e      	mov	r6, r9
 8000b76:	4645      	mov	r5, r8
 8000b78:	46de      	mov	lr, fp
 8000b7a:	b5e0      	push	{r5, r6, r7, lr}
 8000b7c:	4681      	mov	r9, r0
 8000b7e:	0005      	movs	r5, r0
 8000b80:	030c      	lsls	r4, r1, #12
 8000b82:	0048      	lsls	r0, r1, #1
 8000b84:	4692      	mov	sl, r2
 8000b86:	001f      	movs	r7, r3
 8000b88:	b085      	sub	sp, #20
 8000b8a:	0b24      	lsrs	r4, r4, #12
 8000b8c:	0d40      	lsrs	r0, r0, #21
 8000b8e:	0fce      	lsrs	r6, r1, #31
 8000b90:	2800      	cmp	r0, #0
 8000b92:	d100      	bne.n	8000b96 <__aeabi_ddiv+0x26>
 8000b94:	e156      	b.n	8000e44 <__aeabi_ddiv+0x2d4>
 8000b96:	4bd4      	ldr	r3, [pc, #848]	; (8000ee8 <__aeabi_ddiv+0x378>)
 8000b98:	4298      	cmp	r0, r3
 8000b9a:	d100      	bne.n	8000b9e <__aeabi_ddiv+0x2e>
 8000b9c:	e172      	b.n	8000e84 <__aeabi_ddiv+0x314>
 8000b9e:	0f6b      	lsrs	r3, r5, #29
 8000ba0:	00e4      	lsls	r4, r4, #3
 8000ba2:	431c      	orrs	r4, r3
 8000ba4:	2380      	movs	r3, #128	; 0x80
 8000ba6:	041b      	lsls	r3, r3, #16
 8000ba8:	4323      	orrs	r3, r4
 8000baa:	4698      	mov	r8, r3
 8000bac:	4bcf      	ldr	r3, [pc, #828]	; (8000eec <__aeabi_ddiv+0x37c>)
 8000bae:	00ed      	lsls	r5, r5, #3
 8000bb0:	469b      	mov	fp, r3
 8000bb2:	2300      	movs	r3, #0
 8000bb4:	4699      	mov	r9, r3
 8000bb6:	4483      	add	fp, r0
 8000bb8:	9300      	str	r3, [sp, #0]
 8000bba:	033c      	lsls	r4, r7, #12
 8000bbc:	007b      	lsls	r3, r7, #1
 8000bbe:	4650      	mov	r0, sl
 8000bc0:	0b24      	lsrs	r4, r4, #12
 8000bc2:	0d5b      	lsrs	r3, r3, #21
 8000bc4:	0fff      	lsrs	r7, r7, #31
 8000bc6:	2b00      	cmp	r3, #0
 8000bc8:	d100      	bne.n	8000bcc <__aeabi_ddiv+0x5c>
 8000bca:	e11f      	b.n	8000e0c <__aeabi_ddiv+0x29c>
 8000bcc:	4ac6      	ldr	r2, [pc, #792]	; (8000ee8 <__aeabi_ddiv+0x378>)
 8000bce:	4293      	cmp	r3, r2
 8000bd0:	d100      	bne.n	8000bd4 <__aeabi_ddiv+0x64>
 8000bd2:	e162      	b.n	8000e9a <__aeabi_ddiv+0x32a>
 8000bd4:	49c5      	ldr	r1, [pc, #788]	; (8000eec <__aeabi_ddiv+0x37c>)
 8000bd6:	0f42      	lsrs	r2, r0, #29
 8000bd8:	468c      	mov	ip, r1
 8000bda:	00e4      	lsls	r4, r4, #3
 8000bdc:	4659      	mov	r1, fp
 8000bde:	4314      	orrs	r4, r2
 8000be0:	2280      	movs	r2, #128	; 0x80
 8000be2:	4463      	add	r3, ip
 8000be4:	0412      	lsls	r2, r2, #16
 8000be6:	1acb      	subs	r3, r1, r3
 8000be8:	4314      	orrs	r4, r2
 8000bea:	469b      	mov	fp, r3
 8000bec:	00c2      	lsls	r2, r0, #3
 8000bee:	2000      	movs	r0, #0
 8000bf0:	0033      	movs	r3, r6
 8000bf2:	407b      	eors	r3, r7
 8000bf4:	469a      	mov	sl, r3
 8000bf6:	464b      	mov	r3, r9
 8000bf8:	2b0f      	cmp	r3, #15
 8000bfa:	d827      	bhi.n	8000c4c <__aeabi_ddiv+0xdc>
 8000bfc:	49bc      	ldr	r1, [pc, #752]	; (8000ef0 <__aeabi_ddiv+0x380>)
 8000bfe:	009b      	lsls	r3, r3, #2
 8000c00:	58cb      	ldr	r3, [r1, r3]
 8000c02:	469f      	mov	pc, r3
 8000c04:	46b2      	mov	sl, r6
 8000c06:	9b00      	ldr	r3, [sp, #0]
 8000c08:	2b02      	cmp	r3, #2
 8000c0a:	d016      	beq.n	8000c3a <__aeabi_ddiv+0xca>
 8000c0c:	2b03      	cmp	r3, #3
 8000c0e:	d100      	bne.n	8000c12 <__aeabi_ddiv+0xa2>
 8000c10:	e28e      	b.n	8001130 <__aeabi_ddiv+0x5c0>
 8000c12:	2b01      	cmp	r3, #1
 8000c14:	d000      	beq.n	8000c18 <__aeabi_ddiv+0xa8>
 8000c16:	e0d9      	b.n	8000dcc <__aeabi_ddiv+0x25c>
 8000c18:	2300      	movs	r3, #0
 8000c1a:	2400      	movs	r4, #0
 8000c1c:	2500      	movs	r5, #0
 8000c1e:	4652      	mov	r2, sl
 8000c20:	051b      	lsls	r3, r3, #20
 8000c22:	4323      	orrs	r3, r4
 8000c24:	07d2      	lsls	r2, r2, #31
 8000c26:	4313      	orrs	r3, r2
 8000c28:	0028      	movs	r0, r5
 8000c2a:	0019      	movs	r1, r3
 8000c2c:	b005      	add	sp, #20
 8000c2e:	bcf0      	pop	{r4, r5, r6, r7}
 8000c30:	46bb      	mov	fp, r7
 8000c32:	46b2      	mov	sl, r6
 8000c34:	46a9      	mov	r9, r5
 8000c36:	46a0      	mov	r8, r4
 8000c38:	bdf0      	pop	{r4, r5, r6, r7, pc}
 8000c3a:	2400      	movs	r4, #0
 8000c3c:	2500      	movs	r5, #0
 8000c3e:	4baa      	ldr	r3, [pc, #680]	; (8000ee8 <__aeabi_ddiv+0x378>)
 8000c40:	e7ed      	b.n	8000c1e <__aeabi_ddiv+0xae>
 8000c42:	46ba      	mov	sl, r7
 8000c44:	46a0      	mov	r8, r4
 8000c46:	0015      	movs	r5, r2
 8000c48:	9000      	str	r0, [sp, #0]
 8000c4a:	e7dc      	b.n	8000c06 <__aeabi_ddiv+0x96>
 8000c4c:	4544      	cmp	r4, r8
 8000c4e:	d200      	bcs.n	8000c52 <__aeabi_ddiv+0xe2>
 8000c50:	e1c7      	b.n	8000fe2 <__aeabi_ddiv+0x472>
 8000c52:	d100      	bne.n	8000c56 <__aeabi_ddiv+0xe6>
 8000c54:	e1c2      	b.n	8000fdc <__aeabi_ddiv+0x46c>
 8000c56:	2301      	movs	r3, #1
 8000c58:	425b      	negs	r3, r3
 8000c5a:	469c      	mov	ip, r3
 8000c5c:	002e      	movs	r6, r5
 8000c5e:	4640      	mov	r0, r8
 8000c60:	2500      	movs	r5, #0
 8000c62:	44e3      	add	fp, ip
 8000c64:	0223      	lsls	r3, r4, #8
 8000c66:	0e14      	lsrs	r4, r2, #24
 8000c68:	431c      	orrs	r4, r3
 8000c6a:	0c1b      	lsrs	r3, r3, #16
 8000c6c:	4699      	mov	r9, r3
 8000c6e:	0423      	lsls	r3, r4, #16
 8000c70:	0c1f      	lsrs	r7, r3, #16
 8000c72:	0212      	lsls	r2, r2, #8
 8000c74:	4649      	mov	r1, r9
 8000c76:	9200      	str	r2, [sp, #0]
 8000c78:	9701      	str	r7, [sp, #4]
 8000c7a:	f7ff fad9 	bl	8000230 <__aeabi_uidivmod>
 8000c7e:	0002      	movs	r2, r0
 8000c80:	437a      	muls	r2, r7
 8000c82:	040b      	lsls	r3, r1, #16
 8000c84:	0c31      	lsrs	r1, r6, #16
 8000c86:	4680      	mov	r8, r0
 8000c88:	4319      	orrs	r1, r3
 8000c8a:	428a      	cmp	r2, r1
 8000c8c:	d907      	bls.n	8000c9e <__aeabi_ddiv+0x12e>
 8000c8e:	2301      	movs	r3, #1
 8000c90:	425b      	negs	r3, r3
 8000c92:	469c      	mov	ip, r3
 8000c94:	1909      	adds	r1, r1, r4
 8000c96:	44e0      	add	r8, ip
 8000c98:	428c      	cmp	r4, r1
 8000c9a:	d800      	bhi.n	8000c9e <__aeabi_ddiv+0x12e>
 8000c9c:	e207      	b.n	80010ae <__aeabi_ddiv+0x53e>
 8000c9e:	1a88      	subs	r0, r1, r2
 8000ca0:	4649      	mov	r1, r9
 8000ca2:	f7ff fac5 	bl	8000230 <__aeabi_uidivmod>
 8000ca6:	0409      	lsls	r1, r1, #16
 8000ca8:	468c      	mov	ip, r1
 8000caa:	0431      	lsls	r1, r6, #16
 8000cac:	4666      	mov	r6, ip
 8000cae:	9a01      	ldr	r2, [sp, #4]
 8000cb0:	0c09      	lsrs	r1, r1, #16
 8000cb2:	4342      	muls	r2, r0
 8000cb4:	0003      	movs	r3, r0
 8000cb6:	4331      	orrs	r1, r6
 8000cb8:	428a      	cmp	r2, r1
 8000cba:	d904      	bls.n	8000cc6 <__aeabi_ddiv+0x156>
 8000cbc:	1909      	adds	r1, r1, r4
 8000cbe:	3b01      	subs	r3, #1
 8000cc0:	428c      	cmp	r4, r1
 8000cc2:	d800      	bhi.n	8000cc6 <__aeabi_ddiv+0x156>
 8000cc4:	e1ed      	b.n	80010a2 <__aeabi_ddiv+0x532>
 8000cc6:	1a88      	subs	r0, r1, r2
 8000cc8:	4642      	mov	r2, r8
 8000cca:	0412      	lsls	r2, r2, #16
 8000ccc:	431a      	orrs	r2, r3
 8000cce:	4690      	mov	r8, r2
 8000cd0:	4641      	mov	r1, r8
 8000cd2:	9b00      	ldr	r3, [sp, #0]
 8000cd4:	040e      	lsls	r6, r1, #16
 8000cd6:	0c1b      	lsrs	r3, r3, #16
 8000cd8:	001f      	movs	r7, r3
 8000cda:	9302      	str	r3, [sp, #8]
 8000cdc:	9b00      	ldr	r3, [sp, #0]
 8000cde:	0c36      	lsrs	r6, r6, #16
 8000ce0:	041b      	lsls	r3, r3, #16
 8000ce2:	0c19      	lsrs	r1, r3, #16
 8000ce4:	000b      	movs	r3, r1
 8000ce6:	4373      	muls	r3, r6
 8000ce8:	0c12      	lsrs	r2, r2, #16
 8000cea:	437e      	muls	r6, r7
 8000cec:	9103      	str	r1, [sp, #12]
 8000cee:	4351      	muls	r1, r2
 8000cf0:	437a      	muls	r2, r7
 8000cf2:	0c1f      	lsrs	r7, r3, #16
 8000cf4:	46bc      	mov	ip, r7
 8000cf6:	1876      	adds	r6, r6, r1
 8000cf8:	4466      	add	r6, ip
 8000cfa:	42b1      	cmp	r1, r6
 8000cfc:	d903      	bls.n	8000d06 <__aeabi_ddiv+0x196>
 8000cfe:	2180      	movs	r1, #128	; 0x80
 8000d00:	0249      	lsls	r1, r1, #9
 8000d02:	468c      	mov	ip, r1
 8000d04:	4462      	add	r2, ip
 8000d06:	0c31      	lsrs	r1, r6, #16
 8000d08:	188a      	adds	r2, r1, r2
 8000d0a:	0431      	lsls	r1, r6, #16
 8000d0c:	041e      	lsls	r6, r3, #16
 8000d0e:	0c36      	lsrs	r6, r6, #16
 8000d10:	198e      	adds	r6, r1, r6
 8000d12:	4290      	cmp	r0, r2
 8000d14:	d302      	bcc.n	8000d1c <__aeabi_ddiv+0x1ac>
 8000d16:	d112      	bne.n	8000d3e <__aeabi_ddiv+0x1ce>
 8000d18:	42b5      	cmp	r5, r6
 8000d1a:	d210      	bcs.n	8000d3e <__aeabi_ddiv+0x1ce>
 8000d1c:	4643      	mov	r3, r8
 8000d1e:	1e59      	subs	r1, r3, #1
 8000d20:	9b00      	ldr	r3, [sp, #0]
 8000d22:	469c      	mov	ip, r3
 8000d24:	4465      	add	r5, ip
 8000d26:	001f      	movs	r7, r3
 8000d28:	429d      	cmp	r5, r3
 8000d2a:	419b      	sbcs	r3, r3
 8000d2c:	425b      	negs	r3, r3
 8000d2e:	191b      	adds	r3, r3, r4
 8000d30:	18c0      	adds	r0, r0, r3
 8000d32:	4284      	cmp	r4, r0
 8000d34:	d200      	bcs.n	8000d38 <__aeabi_ddiv+0x1c8>
 8000d36:	e1a0      	b.n	800107a <__aeabi_ddiv+0x50a>
 8000d38:	d100      	bne.n	8000d3c <__aeabi_ddiv+0x1cc>
 8000d3a:	e19b      	b.n	8001074 <__aeabi_ddiv+0x504>
 8000d3c:	4688      	mov	r8, r1
 8000d3e:	1bae      	subs	r6, r5, r6
 8000d40:	42b5      	cmp	r5, r6
 8000d42:	41ad      	sbcs	r5, r5
 8000d44:	1a80      	subs	r0, r0, r2
 8000d46:	426d      	negs	r5, r5
 8000d48:	1b40      	subs	r0, r0, r5
 8000d4a:	4284      	cmp	r4, r0
 8000d4c:	d100      	bne.n	8000d50 <__aeabi_ddiv+0x1e0>
 8000d4e:	e1d5      	b.n	80010fc <__aeabi_ddiv+0x58c>
 8000d50:	4649      	mov	r1, r9
 8000d52:	f7ff fa6d 	bl	8000230 <__aeabi_uidivmod>
 8000d56:	9a01      	ldr	r2, [sp, #4]
 8000d58:	040b      	lsls	r3, r1, #16
 8000d5a:	4342      	muls	r2, r0
 8000d5c:	0c31      	lsrs	r1, r6, #16
 8000d5e:	0005      	movs	r5, r0
 8000d60:	4319      	orrs	r1, r3
 8000d62:	428a      	cmp	r2, r1
 8000d64:	d900      	bls.n	8000d68 <__aeabi_ddiv+0x1f8>
 8000d66:	e16c      	b.n	8001042 <__aeabi_ddiv+0x4d2>
 8000d68:	1a88      	subs	r0, r1, r2
 8000d6a:	4649      	mov	r1, r9
 8000d6c:	f7ff fa60 	bl	8000230 <__aeabi_uidivmod>
 8000d70:	9a01      	ldr	r2, [sp, #4]
 8000d72:	0436      	lsls	r6, r6, #16
 8000d74:	4342      	muls	r2, r0
 8000d76:	0409      	lsls	r1, r1, #16
 8000d78:	0c36      	lsrs	r6, r6, #16
 8000d7a:	0003      	movs	r3, r0
 8000d7c:	430e      	orrs	r6, r1
 8000d7e:	42b2      	cmp	r2, r6
 8000d80:	d900      	bls.n	8000d84 <__aeabi_ddiv+0x214>
 8000d82:	e153      	b.n	800102c <__aeabi_ddiv+0x4bc>
 8000d84:	9803      	ldr	r0, [sp, #12]
 8000d86:	1ab6      	subs	r6, r6, r2
 8000d88:	0002      	movs	r2, r0
 8000d8a:	042d      	lsls	r5, r5, #16
 8000d8c:	431d      	orrs	r5, r3
 8000d8e:	9f02      	ldr	r7, [sp, #8]
 8000d90:	042b      	lsls	r3, r5, #16
 8000d92:	0c1b      	lsrs	r3, r3, #16
 8000d94:	435a      	muls	r2, r3
 8000d96:	437b      	muls	r3, r7
 8000d98:	469c      	mov	ip, r3
 8000d9a:	0c29      	lsrs	r1, r5, #16
 8000d9c:	4348      	muls	r0, r1
 8000d9e:	0c13      	lsrs	r3, r2, #16
 8000da0:	4484      	add	ip, r0
 8000da2:	4463      	add	r3, ip
 8000da4:	4379      	muls	r1, r7
 8000da6:	4298      	cmp	r0, r3
 8000da8:	d903      	bls.n	8000db2 <__aeabi_ddiv+0x242>
 8000daa:	2080      	movs	r0, #128	; 0x80
 8000dac:	0240      	lsls	r0, r0, #9
 8000dae:	4684      	mov	ip, r0
 8000db0:	4461      	add	r1, ip
 8000db2:	0c18      	lsrs	r0, r3, #16
 8000db4:	0412      	lsls	r2, r2, #16
 8000db6:	041b      	lsls	r3, r3, #16
 8000db8:	0c12      	lsrs	r2, r2, #16
 8000dba:	1841      	adds	r1, r0, r1
 8000dbc:	189b      	adds	r3, r3, r2
 8000dbe:	428e      	cmp	r6, r1
 8000dc0:	d200      	bcs.n	8000dc4 <__aeabi_ddiv+0x254>
 8000dc2:	e0ff      	b.n	8000fc4 <__aeabi_ddiv+0x454>
 8000dc4:	d100      	bne.n	8000dc8 <__aeabi_ddiv+0x258>
 8000dc6:	e0fa      	b.n	8000fbe <__aeabi_ddiv+0x44e>
 8000dc8:	2301      	movs	r3, #1
 8000dca:	431d      	orrs	r5, r3
 8000dcc:	4a49      	ldr	r2, [pc, #292]	; (8000ef4 <__aeabi_ddiv+0x384>)
 8000dce:	445a      	add	r2, fp
 8000dd0:	2a00      	cmp	r2, #0
 8000dd2:	dc00      	bgt.n	8000dd6 <__aeabi_ddiv+0x266>
 8000dd4:	e0aa      	b.n	8000f2c <__aeabi_ddiv+0x3bc>
 8000dd6:	076b      	lsls	r3, r5, #29
 8000dd8:	d000      	beq.n	8000ddc <__aeabi_ddiv+0x26c>
 8000dda:	e13d      	b.n	8001058 <__aeabi_ddiv+0x4e8>
 8000ddc:	08ed      	lsrs	r5, r5, #3
 8000dde:	4643      	mov	r3, r8
 8000de0:	01db      	lsls	r3, r3, #7
 8000de2:	d506      	bpl.n	8000df2 <__aeabi_ddiv+0x282>
 8000de4:	4642      	mov	r2, r8
 8000de6:	4b44      	ldr	r3, [pc, #272]	; (8000ef8 <__aeabi_ddiv+0x388>)
 8000de8:	401a      	ands	r2, r3
 8000dea:	4690      	mov	r8, r2
 8000dec:	2280      	movs	r2, #128	; 0x80
 8000dee:	00d2      	lsls	r2, r2, #3
 8000df0:	445a      	add	r2, fp
 8000df2:	4b42      	ldr	r3, [pc, #264]	; (8000efc <__aeabi_ddiv+0x38c>)
 8000df4:	429a      	cmp	r2, r3
 8000df6:	dd00      	ble.n	8000dfa <__aeabi_ddiv+0x28a>
 8000df8:	e71f      	b.n	8000c3a <__aeabi_ddiv+0xca>
 8000dfa:	4643      	mov	r3, r8
 8000dfc:	075b      	lsls	r3, r3, #29
 8000dfe:	431d      	orrs	r5, r3
 8000e00:	4643      	mov	r3, r8
 8000e02:	0552      	lsls	r2, r2, #21
 8000e04:	025c      	lsls	r4, r3, #9
 8000e06:	0b24      	lsrs	r4, r4, #12
 8000e08:	0d53      	lsrs	r3, r2, #21
 8000e0a:	e708      	b.n	8000c1e <__aeabi_ddiv+0xae>
 8000e0c:	4652      	mov	r2, sl
 8000e0e:	4322      	orrs	r2, r4
 8000e10:	d100      	bne.n	8000e14 <__aeabi_ddiv+0x2a4>
 8000e12:	e07b      	b.n	8000f0c <__aeabi_ddiv+0x39c>
 8000e14:	2c00      	cmp	r4, #0
 8000e16:	d100      	bne.n	8000e1a <__aeabi_ddiv+0x2aa>
 8000e18:	e0fa      	b.n	8001010 <__aeabi_ddiv+0x4a0>
 8000e1a:	0020      	movs	r0, r4
 8000e1c:	f001 f904 	bl	8002028 <__clzsi2>
 8000e20:	0002      	movs	r2, r0
 8000e22:	3a0b      	subs	r2, #11
 8000e24:	231d      	movs	r3, #29
 8000e26:	0001      	movs	r1, r0
 8000e28:	1a9b      	subs	r3, r3, r2
 8000e2a:	4652      	mov	r2, sl
 8000e2c:	3908      	subs	r1, #8
 8000e2e:	40da      	lsrs	r2, r3
 8000e30:	408c      	lsls	r4, r1
 8000e32:	4314      	orrs	r4, r2
 8000e34:	4652      	mov	r2, sl
 8000e36:	408a      	lsls	r2, r1
 8000e38:	4b31      	ldr	r3, [pc, #196]	; (8000f00 <__aeabi_ddiv+0x390>)
 8000e3a:	4458      	add	r0, fp
 8000e3c:	469b      	mov	fp, r3
 8000e3e:	4483      	add	fp, r0
 8000e40:	2000      	movs	r0, #0
 8000e42:	e6d5      	b.n	8000bf0 <__aeabi_ddiv+0x80>
 8000e44:	464b      	mov	r3, r9
 8000e46:	4323      	orrs	r3, r4
 8000e48:	4698      	mov	r8, r3
 8000e4a:	d044      	beq.n	8000ed6 <__aeabi_ddiv+0x366>
 8000e4c:	2c00      	cmp	r4, #0
 8000e4e:	d100      	bne.n	8000e52 <__aeabi_ddiv+0x2e2>
 8000e50:	e0ce      	b.n	8000ff0 <__aeabi_ddiv+0x480>
 8000e52:	0020      	movs	r0, r4
 8000e54:	f001 f8e8 	bl	8002028 <__clzsi2>
 8000e58:	0001      	movs	r1, r0
 8000e5a:	0002      	movs	r2, r0
 8000e5c:	390b      	subs	r1, #11
 8000e5e:	231d      	movs	r3, #29
 8000e60:	1a5b      	subs	r3, r3, r1
 8000e62:	4649      	mov	r1, r9
 8000e64:	0010      	movs	r0, r2
 8000e66:	40d9      	lsrs	r1, r3
 8000e68:	3808      	subs	r0, #8
 8000e6a:	4084      	lsls	r4, r0
 8000e6c:	000b      	movs	r3, r1
 8000e6e:	464d      	mov	r5, r9
 8000e70:	4323      	orrs	r3, r4
 8000e72:	4698      	mov	r8, r3
 8000e74:	4085      	lsls	r5, r0
 8000e76:	4823      	ldr	r0, [pc, #140]	; (8000f04 <__aeabi_ddiv+0x394>)
 8000e78:	1a83      	subs	r3, r0, r2
 8000e7a:	469b      	mov	fp, r3
 8000e7c:	2300      	movs	r3, #0
 8000e7e:	4699      	mov	r9, r3
 8000e80:	9300      	str	r3, [sp, #0]
 8000e82:	e69a      	b.n	8000bba <__aeabi_ddiv+0x4a>
 8000e84:	464b      	mov	r3, r9
 8000e86:	4323      	orrs	r3, r4
 8000e88:	4698      	mov	r8, r3
 8000e8a:	d11d      	bne.n	8000ec8 <__aeabi_ddiv+0x358>
 8000e8c:	2308      	movs	r3, #8
 8000e8e:	4699      	mov	r9, r3
 8000e90:	3b06      	subs	r3, #6
 8000e92:	2500      	movs	r5, #0
 8000e94:	4683      	mov	fp, r0
 8000e96:	9300      	str	r3, [sp, #0]
 8000e98:	e68f      	b.n	8000bba <__aeabi_ddiv+0x4a>
 8000e9a:	4652      	mov	r2, sl
 8000e9c:	4322      	orrs	r2, r4
 8000e9e:	d109      	bne.n	8000eb4 <__aeabi_ddiv+0x344>
 8000ea0:	2302      	movs	r3, #2
 8000ea2:	4649      	mov	r1, r9
 8000ea4:	4319      	orrs	r1, r3
 8000ea6:	4b18      	ldr	r3, [pc, #96]	; (8000f08 <__aeabi_ddiv+0x398>)
 8000ea8:	4689      	mov	r9, r1
 8000eaa:	469c      	mov	ip, r3
 8000eac:	2400      	movs	r4, #0
 8000eae:	2002      	movs	r0, #2
 8000eb0:	44e3      	add	fp, ip
 8000eb2:	e69d      	b.n	8000bf0 <__aeabi_ddiv+0x80>
 8000eb4:	2303      	movs	r3, #3
 8000eb6:	464a      	mov	r2, r9
 8000eb8:	431a      	orrs	r2, r3
 8000eba:	4b13      	ldr	r3, [pc, #76]	; (8000f08 <__aeabi_ddiv+0x398>)
 8000ebc:	4691      	mov	r9, r2
 8000ebe:	469c      	mov	ip, r3
 8000ec0:	4652      	mov	r2, sl
 8000ec2:	2003      	movs	r0, #3
 8000ec4:	44e3      	add	fp, ip
 8000ec6:	e693      	b.n	8000bf0 <__aeabi_ddiv+0x80>
 8000ec8:	230c      	movs	r3, #12
 8000eca:	4699      	mov	r9, r3
 8000ecc:	3b09      	subs	r3, #9
 8000ece:	46a0      	mov	r8, r4
 8000ed0:	4683      	mov	fp, r0
 8000ed2:	9300      	str	r3, [sp, #0]
 8000ed4:	e671      	b.n	8000bba <__aeabi_ddiv+0x4a>
 8000ed6:	2304      	movs	r3, #4
 8000ed8:	4699      	mov	r9, r3
 8000eda:	2300      	movs	r3, #0
 8000edc:	469b      	mov	fp, r3
 8000ede:	3301      	adds	r3, #1
 8000ee0:	2500      	movs	r5, #0
 8000ee2:	9300      	str	r3, [sp, #0]
 8000ee4:	e669      	b.n	8000bba <__aeabi_ddiv+0x4a>
 8000ee6:	46c0      	nop			; (mov r8, r8)
 8000ee8:	000007ff 	.word	0x000007ff
 8000eec:	fffffc01 	.word	0xfffffc01
 8000ef0:	080045d4 	.word	0x080045d4
 8000ef4:	000003ff 	.word	0x000003ff
 8000ef8:	feffffff 	.word	0xfeffffff
 8000efc:	000007fe 	.word	0x000007fe
 8000f00:	000003f3 	.word	0x000003f3
 8000f04:	fffffc0d 	.word	0xfffffc0d
 8000f08:	fffff801 	.word	0xfffff801
 8000f0c:	4649      	mov	r1, r9
 8000f0e:	2301      	movs	r3, #1
 8000f10:	4319      	orrs	r1, r3
 8000f12:	4689      	mov	r9, r1
 8000f14:	2400      	movs	r4, #0
 8000f16:	2001      	movs	r0, #1
 8000f18:	e66a      	b.n	8000bf0 <__aeabi_ddiv+0x80>
 8000f1a:	2300      	movs	r3, #0
 8000f1c:	2480      	movs	r4, #128	; 0x80
 8000f1e:	469a      	mov	sl, r3
 8000f20:	2500      	movs	r5, #0
 8000f22:	4b8a      	ldr	r3, [pc, #552]	; (800114c <__aeabi_ddiv+0x5dc>)
 8000f24:	0324      	lsls	r4, r4, #12
 8000f26:	e67a      	b.n	8000c1e <__aeabi_ddiv+0xae>
 8000f28:	2501      	movs	r5, #1
 8000f2a:	426d      	negs	r5, r5
 8000f2c:	2301      	movs	r3, #1
 8000f2e:	1a9b      	subs	r3, r3, r2
 8000f30:	2b38      	cmp	r3, #56	; 0x38
 8000f32:	dd00      	ble.n	8000f36 <__aeabi_ddiv+0x3c6>
 8000f34:	e670      	b.n	8000c18 <__aeabi_ddiv+0xa8>
 8000f36:	2b1f      	cmp	r3, #31
 8000f38:	dc00      	bgt.n	8000f3c <__aeabi_ddiv+0x3cc>
 8000f3a:	e0bf      	b.n	80010bc <__aeabi_ddiv+0x54c>
 8000f3c:	211f      	movs	r1, #31
 8000f3e:	4249      	negs	r1, r1
 8000f40:	1a8a      	subs	r2, r1, r2
 8000f42:	4641      	mov	r1, r8
 8000f44:	40d1      	lsrs	r1, r2
 8000f46:	000a      	movs	r2, r1
 8000f48:	2b20      	cmp	r3, #32
 8000f4a:	d004      	beq.n	8000f56 <__aeabi_ddiv+0x3e6>
 8000f4c:	4641      	mov	r1, r8
 8000f4e:	4b80      	ldr	r3, [pc, #512]	; (8001150 <__aeabi_ddiv+0x5e0>)
 8000f50:	445b      	add	r3, fp
 8000f52:	4099      	lsls	r1, r3
 8000f54:	430d      	orrs	r5, r1
 8000f56:	1e6b      	subs	r3, r5, #1
 8000f58:	419d      	sbcs	r5, r3
 8000f5a:	2307      	movs	r3, #7
 8000f5c:	432a      	orrs	r2, r5
 8000f5e:	001d      	movs	r5, r3
 8000f60:	2400      	movs	r4, #0
 8000f62:	4015      	ands	r5, r2
 8000f64:	4213      	tst	r3, r2
 8000f66:	d100      	bne.n	8000f6a <__aeabi_ddiv+0x3fa>
 8000f68:	e0d4      	b.n	8001114 <__aeabi_ddiv+0x5a4>
 8000f6a:	210f      	movs	r1, #15
 8000f6c:	2300      	movs	r3, #0
 8000f6e:	4011      	ands	r1, r2
 8000f70:	2904      	cmp	r1, #4
 8000f72:	d100      	bne.n	8000f76 <__aeabi_ddiv+0x406>
 8000f74:	e0cb      	b.n	800110e <__aeabi_ddiv+0x59e>
 8000f76:	1d11      	adds	r1, r2, #4
 8000f78:	4291      	cmp	r1, r2
 8000f7a:	4192      	sbcs	r2, r2
 8000f7c:	4252      	negs	r2, r2
 8000f7e:	189b      	adds	r3, r3, r2
 8000f80:	000a      	movs	r2, r1
 8000f82:	0219      	lsls	r1, r3, #8
 8000f84:	d400      	bmi.n	8000f88 <__aeabi_ddiv+0x418>
 8000f86:	e0c2      	b.n	800110e <__aeabi_ddiv+0x59e>
 8000f88:	2301      	movs	r3, #1
 8000f8a:	2400      	movs	r4, #0
 8000f8c:	2500      	movs	r5, #0
 8000f8e:	e646      	b.n	8000c1e <__aeabi_ddiv+0xae>
 8000f90:	2380      	movs	r3, #128	; 0x80
 8000f92:	4641      	mov	r1, r8
 8000f94:	031b      	lsls	r3, r3, #12
 8000f96:	4219      	tst	r1, r3
 8000f98:	d008      	beq.n	8000fac <__aeabi_ddiv+0x43c>
 8000f9a:	421c      	tst	r4, r3
 8000f9c:	d106      	bne.n	8000fac <__aeabi_ddiv+0x43c>
 8000f9e:	431c      	orrs	r4, r3
 8000fa0:	0324      	lsls	r4, r4, #12
 8000fa2:	46ba      	mov	sl, r7
 8000fa4:	0015      	movs	r5, r2
 8000fa6:	4b69      	ldr	r3, [pc, #420]	; (800114c <__aeabi_ddiv+0x5dc>)
 8000fa8:	0b24      	lsrs	r4, r4, #12
 8000faa:	e638      	b.n	8000c1e <__aeabi_ddiv+0xae>
 8000fac:	2480      	movs	r4, #128	; 0x80
 8000fae:	4643      	mov	r3, r8
 8000fb0:	0324      	lsls	r4, r4, #12
 8000fb2:	431c      	orrs	r4, r3
 8000fb4:	0324      	lsls	r4, r4, #12
 8000fb6:	46b2      	mov	sl, r6
 8000fb8:	4b64      	ldr	r3, [pc, #400]	; (800114c <__aeabi_ddiv+0x5dc>)
 8000fba:	0b24      	lsrs	r4, r4, #12
 8000fbc:	e62f      	b.n	8000c1e <__aeabi_ddiv+0xae>
 8000fbe:	2b00      	cmp	r3, #0
 8000fc0:	d100      	bne.n	8000fc4 <__aeabi_ddiv+0x454>
 8000fc2:	e703      	b.n	8000dcc <__aeabi_ddiv+0x25c>
 8000fc4:	19a6      	adds	r6, r4, r6
 8000fc6:	1e68      	subs	r0, r5, #1
 8000fc8:	42a6      	cmp	r6, r4
 8000fca:	d200      	bcs.n	8000fce <__aeabi_ddiv+0x45e>
 8000fcc:	e08d      	b.n	80010ea <__aeabi_ddiv+0x57a>
 8000fce:	428e      	cmp	r6, r1
 8000fd0:	d200      	bcs.n	8000fd4 <__aeabi_ddiv+0x464>
 8000fd2:	e0a3      	b.n	800111c <__aeabi_ddiv+0x5ac>
 8000fd4:	d100      	bne.n	8000fd8 <__aeabi_ddiv+0x468>
 8000fd6:	e0b3      	b.n	8001140 <__aeabi_ddiv+0x5d0>
 8000fd8:	0005      	movs	r5, r0
 8000fda:	e6f5      	b.n	8000dc8 <__aeabi_ddiv+0x258>
 8000fdc:	42aa      	cmp	r2, r5
 8000fde:	d900      	bls.n	8000fe2 <__aeabi_ddiv+0x472>
 8000fe0:	e639      	b.n	8000c56 <__aeabi_ddiv+0xe6>
 8000fe2:	4643      	mov	r3, r8
 8000fe4:	07de      	lsls	r6, r3, #31
 8000fe6:	0858      	lsrs	r0, r3, #1
 8000fe8:	086b      	lsrs	r3, r5, #1
 8000fea:	431e      	orrs	r6, r3
 8000fec:	07ed      	lsls	r5, r5, #31
 8000fee:	e639      	b.n	8000c64 <__aeabi_ddiv+0xf4>
 8000ff0:	4648      	mov	r0, r9
 8000ff2:	f001 f819 	bl	8002028 <__clzsi2>
 8000ff6:	0001      	movs	r1, r0
 8000ff8:	0002      	movs	r2, r0
 8000ffa:	3115      	adds	r1, #21
 8000ffc:	3220      	adds	r2, #32
 8000ffe:	291c      	cmp	r1, #28
 8001000:	dc00      	bgt.n	8001004 <__aeabi_ddiv+0x494>
 8001002:	e72c      	b.n	8000e5e <__aeabi_ddiv+0x2ee>
 8001004:	464b      	mov	r3, r9
 8001006:	3808      	subs	r0, #8
 8001008:	4083      	lsls	r3, r0
 800100a:	2500      	movs	r5, #0
 800100c:	4698      	mov	r8, r3
 800100e:	e732      	b.n	8000e76 <__aeabi_ddiv+0x306>
 8001010:	f001 f80a 	bl	8002028 <__clzsi2>
 8001014:	0003      	movs	r3, r0
 8001016:	001a      	movs	r2, r3
 8001018:	3215      	adds	r2, #21
 800101a:	3020      	adds	r0, #32
 800101c:	2a1c      	cmp	r2, #28
 800101e:	dc00      	bgt.n	8001022 <__aeabi_ddiv+0x4b2>
 8001020:	e700      	b.n	8000e24 <__aeabi_ddiv+0x2b4>
 8001022:	4654      	mov	r4, sl
 8001024:	3b08      	subs	r3, #8
 8001026:	2200      	movs	r2, #0
 8001028:	409c      	lsls	r4, r3
 800102a:	e705      	b.n	8000e38 <__aeabi_ddiv+0x2c8>
 800102c:	1936      	adds	r6, r6, r4
 800102e:	3b01      	subs	r3, #1
 8001030:	42b4      	cmp	r4, r6
 8001032:	d900      	bls.n	8001036 <__aeabi_ddiv+0x4c6>
 8001034:	e6a6      	b.n	8000d84 <__aeabi_ddiv+0x214>
 8001036:	42b2      	cmp	r2, r6
 8001038:	d800      	bhi.n	800103c <__aeabi_ddiv+0x4cc>
 800103a:	e6a3      	b.n	8000d84 <__aeabi_ddiv+0x214>
 800103c:	1e83      	subs	r3, r0, #2
 800103e:	1936      	adds	r6, r6, r4
 8001040:	e6a0      	b.n	8000d84 <__aeabi_ddiv+0x214>
 8001042:	1909      	adds	r1, r1, r4
 8001044:	3d01      	subs	r5, #1
 8001046:	428c      	cmp	r4, r1
 8001048:	d900      	bls.n	800104c <__aeabi_ddiv+0x4dc>
 800104a:	e68d      	b.n	8000d68 <__aeabi_ddiv+0x1f8>
 800104c:	428a      	cmp	r2, r1
 800104e:	d800      	bhi.n	8001052 <__aeabi_ddiv+0x4e2>
 8001050:	e68a      	b.n	8000d68 <__aeabi_ddiv+0x1f8>
 8001052:	1e85      	subs	r5, r0, #2
 8001054:	1909      	adds	r1, r1, r4
 8001056:	e687      	b.n	8000d68 <__aeabi_ddiv+0x1f8>
 8001058:	230f      	movs	r3, #15
 800105a:	402b      	ands	r3, r5
 800105c:	2b04      	cmp	r3, #4
 800105e:	d100      	bne.n	8001062 <__aeabi_ddiv+0x4f2>
 8001060:	e6bc      	b.n	8000ddc <__aeabi_ddiv+0x26c>
 8001062:	2305      	movs	r3, #5
 8001064:	425b      	negs	r3, r3
 8001066:	42ab      	cmp	r3, r5
 8001068:	419b      	sbcs	r3, r3
 800106a:	3504      	adds	r5, #4
 800106c:	425b      	negs	r3, r3
 800106e:	08ed      	lsrs	r5, r5, #3
 8001070:	4498      	add	r8, r3
 8001072:	e6b4      	b.n	8000dde <__aeabi_ddiv+0x26e>
 8001074:	42af      	cmp	r7, r5
 8001076:	d900      	bls.n	800107a <__aeabi_ddiv+0x50a>
 8001078:	e660      	b.n	8000d3c <__aeabi_ddiv+0x1cc>
 800107a:	4282      	cmp	r2, r0
 800107c:	d804      	bhi.n	8001088 <__aeabi_ddiv+0x518>
 800107e:	d000      	beq.n	8001082 <__aeabi_ddiv+0x512>
 8001080:	e65c      	b.n	8000d3c <__aeabi_ddiv+0x1cc>
 8001082:	42ae      	cmp	r6, r5
 8001084:	d800      	bhi.n	8001088 <__aeabi_ddiv+0x518>
 8001086:	e659      	b.n	8000d3c <__aeabi_ddiv+0x1cc>
 8001088:	2302      	movs	r3, #2
 800108a:	425b      	negs	r3, r3
 800108c:	469c      	mov	ip, r3
 800108e:	9b00      	ldr	r3, [sp, #0]
 8001090:	44e0      	add	r8, ip
 8001092:	469c      	mov	ip, r3
 8001094:	4465      	add	r5, ip
 8001096:	429d      	cmp	r5, r3
 8001098:	419b      	sbcs	r3, r3
 800109a:	425b      	negs	r3, r3
 800109c:	191b      	adds	r3, r3, r4
 800109e:	18c0      	adds	r0, r0, r3
 80010a0:	e64d      	b.n	8000d3e <__aeabi_ddiv+0x1ce>
 80010a2:	428a      	cmp	r2, r1
 80010a4:	d800      	bhi.n	80010a8 <__aeabi_ddiv+0x538>
 80010a6:	e60e      	b.n	8000cc6 <__aeabi_ddiv+0x156>
 80010a8:	1e83      	subs	r3, r0, #2
 80010aa:	1909      	adds	r1, r1, r4
 80010ac:	e60b      	b.n	8000cc6 <__aeabi_ddiv+0x156>
 80010ae:	428a      	cmp	r2, r1
 80010b0:	d800      	bhi.n	80010b4 <__aeabi_ddiv+0x544>
 80010b2:	e5f4      	b.n	8000c9e <__aeabi_ddiv+0x12e>
 80010b4:	1e83      	subs	r3, r0, #2
 80010b6:	4698      	mov	r8, r3
 80010b8:	1909      	adds	r1, r1, r4
 80010ba:	e5f0      	b.n	8000c9e <__aeabi_ddiv+0x12e>
 80010bc:	4925      	ldr	r1, [pc, #148]	; (8001154 <__aeabi_ddiv+0x5e4>)
 80010be:	0028      	movs	r0, r5
 80010c0:	4459      	add	r1, fp
 80010c2:	408d      	lsls	r5, r1
 80010c4:	4642      	mov	r2, r8
 80010c6:	408a      	lsls	r2, r1
 80010c8:	1e69      	subs	r1, r5, #1
 80010ca:	418d      	sbcs	r5, r1
 80010cc:	4641      	mov	r1, r8
 80010ce:	40d8      	lsrs	r0, r3
 80010d0:	40d9      	lsrs	r1, r3
 80010d2:	4302      	orrs	r2, r0
 80010d4:	432a      	orrs	r2, r5
 80010d6:	000b      	movs	r3, r1
 80010d8:	0751      	lsls	r1, r2, #29
 80010da:	d100      	bne.n	80010de <__aeabi_ddiv+0x56e>
 80010dc:	e751      	b.n	8000f82 <__aeabi_ddiv+0x412>
 80010de:	210f      	movs	r1, #15
 80010e0:	4011      	ands	r1, r2
 80010e2:	2904      	cmp	r1, #4
 80010e4:	d000      	beq.n	80010e8 <__aeabi_ddiv+0x578>
 80010e6:	e746      	b.n	8000f76 <__aeabi_ddiv+0x406>
 80010e8:	e74b      	b.n	8000f82 <__aeabi_ddiv+0x412>
 80010ea:	0005      	movs	r5, r0
 80010ec:	428e      	cmp	r6, r1
 80010ee:	d000      	beq.n	80010f2 <__aeabi_ddiv+0x582>
 80010f0:	e66a      	b.n	8000dc8 <__aeabi_ddiv+0x258>
 80010f2:	9a00      	ldr	r2, [sp, #0]
 80010f4:	4293      	cmp	r3, r2
 80010f6:	d000      	beq.n	80010fa <__aeabi_ddiv+0x58a>
 80010f8:	e666      	b.n	8000dc8 <__aeabi_ddiv+0x258>
 80010fa:	e667      	b.n	8000dcc <__aeabi_ddiv+0x25c>
 80010fc:	4a16      	ldr	r2, [pc, #88]	; (8001158 <__aeabi_ddiv+0x5e8>)
 80010fe:	445a      	add	r2, fp
 8001100:	2a00      	cmp	r2, #0
 8001102:	dc00      	bgt.n	8001106 <__aeabi_ddiv+0x596>
 8001104:	e710      	b.n	8000f28 <__aeabi_ddiv+0x3b8>
 8001106:	2301      	movs	r3, #1
 8001108:	2500      	movs	r5, #0
 800110a:	4498      	add	r8, r3
 800110c:	e667      	b.n	8000dde <__aeabi_ddiv+0x26e>
 800110e:	075d      	lsls	r5, r3, #29
 8001110:	025b      	lsls	r3, r3, #9
 8001112:	0b1c      	lsrs	r4, r3, #12
 8001114:	08d2      	lsrs	r2, r2, #3
 8001116:	2300      	movs	r3, #0
 8001118:	4315      	orrs	r5, r2
 800111a:	e580      	b.n	8000c1e <__aeabi_ddiv+0xae>
 800111c:	9800      	ldr	r0, [sp, #0]
 800111e:	3d02      	subs	r5, #2
 8001120:	0042      	lsls	r2, r0, #1
 8001122:	4282      	cmp	r2, r0
 8001124:	41bf      	sbcs	r7, r7
 8001126:	427f      	negs	r7, r7
 8001128:	193c      	adds	r4, r7, r4
 800112a:	1936      	adds	r6, r6, r4
 800112c:	9200      	str	r2, [sp, #0]
 800112e:	e7dd      	b.n	80010ec <__aeabi_ddiv+0x57c>
 8001130:	2480      	movs	r4, #128	; 0x80
 8001132:	4643      	mov	r3, r8
 8001134:	0324      	lsls	r4, r4, #12
 8001136:	431c      	orrs	r4, r3
 8001138:	0324      	lsls	r4, r4, #12
 800113a:	4b04      	ldr	r3, [pc, #16]	; (800114c <__aeabi_ddiv+0x5dc>)
 800113c:	0b24      	lsrs	r4, r4, #12
 800113e:	e56e      	b.n	8000c1e <__aeabi_ddiv+0xae>
 8001140:	9a00      	ldr	r2, [sp, #0]
 8001142:	429a      	cmp	r2, r3
 8001144:	d3ea      	bcc.n	800111c <__aeabi_ddiv+0x5ac>
 8001146:	0005      	movs	r5, r0
 8001148:	e7d3      	b.n	80010f2 <__aeabi_ddiv+0x582>
 800114a:	46c0      	nop			; (mov r8, r8)
 800114c:	000007ff 	.word	0x000007ff
 8001150:	0000043e 	.word	0x0000043e
 8001154:	0000041e 	.word	0x0000041e
 8001158:	000003ff 	.word	0x000003ff

0800115c <__eqdf2>:
 800115c:	b5f0      	push	{r4, r5, r6, r7, lr}
 800115e:	464e      	mov	r6, r9
 8001160:	4645      	mov	r5, r8
 8001162:	46de      	mov	lr, fp
 8001164:	4657      	mov	r7, sl
 8001166:	4690      	mov	r8, r2
 8001168:	b5e0      	push	{r5, r6, r7, lr}
 800116a:	0017      	movs	r7, r2
 800116c:	031a      	lsls	r2, r3, #12
 800116e:	0b12      	lsrs	r2, r2, #12
 8001170:	0005      	movs	r5, r0
 8001172:	4684      	mov	ip, r0
 8001174:	4819      	ldr	r0, [pc, #100]	; (80011dc <__eqdf2+0x80>)
 8001176:	030e      	lsls	r6, r1, #12
 8001178:	004c      	lsls	r4, r1, #1
 800117a:	4691      	mov	r9, r2
 800117c:	005a      	lsls	r2, r3, #1
 800117e:	0fdb      	lsrs	r3, r3, #31
 8001180:	469b      	mov	fp, r3
 8001182:	0b36      	lsrs	r6, r6, #12
 8001184:	0d64      	lsrs	r4, r4, #21
 8001186:	0fc9      	lsrs	r1, r1, #31
 8001188:	0d52      	lsrs	r2, r2, #21
 800118a:	4284      	cmp	r4, r0
 800118c:	d019      	beq.n	80011c2 <__eqdf2+0x66>
 800118e:	4282      	cmp	r2, r0
 8001190:	d010      	beq.n	80011b4 <__eqdf2+0x58>
 8001192:	2001      	movs	r0, #1
 8001194:	4294      	cmp	r4, r2
 8001196:	d10e      	bne.n	80011b6 <__eqdf2+0x5a>
 8001198:	454e      	cmp	r6, r9
 800119a:	d10c      	bne.n	80011b6 <__eqdf2+0x5a>
 800119c:	2001      	movs	r0, #1
 800119e:	45c4      	cmp	ip, r8
 80011a0:	d109      	bne.n	80011b6 <__eqdf2+0x5a>
 80011a2:	4559      	cmp	r1, fp
 80011a4:	d017      	beq.n	80011d6 <__eqdf2+0x7a>
 80011a6:	2c00      	cmp	r4, #0
 80011a8:	d105      	bne.n	80011b6 <__eqdf2+0x5a>
 80011aa:	0030      	movs	r0, r6
 80011ac:	4328      	orrs	r0, r5
 80011ae:	1e43      	subs	r3, r0, #1
 80011b0:	4198      	sbcs	r0, r3
 80011b2:	e000      	b.n	80011b6 <__eqdf2+0x5a>
 80011b4:	2001      	movs	r0, #1
 80011b6:	bcf0      	pop	{r4, r5, r6, r7}
 80011b8:	46bb      	mov	fp, r7
 80011ba:	46b2      	mov	sl, r6
 80011bc:	46a9      	mov	r9, r5
 80011be:	46a0      	mov	r8, r4
 80011c0:	bdf0      	pop	{r4, r5, r6, r7, pc}
 80011c2:	0033      	movs	r3, r6
 80011c4:	2001      	movs	r0, #1
 80011c6:	432b      	orrs	r3, r5
 80011c8:	d1f5      	bne.n	80011b6 <__eqdf2+0x5a>
 80011ca:	42a2      	cmp	r2, r4
 80011cc:	d1f3      	bne.n	80011b6 <__eqdf2+0x5a>
 80011ce:	464b      	mov	r3, r9
 80011d0:	433b      	orrs	r3, r7
 80011d2:	d1f0      	bne.n	80011b6 <__eqdf2+0x5a>
 80011d4:	e7e2      	b.n	800119c <__eqdf2+0x40>
 80011d6:	2000      	movs	r0, #0
 80011d8:	e7ed      	b.n	80011b6 <__eqdf2+0x5a>
 80011da:	46c0      	nop			; (mov r8, r8)
 80011dc:	000007ff 	.word	0x000007ff

080011e0 <__gedf2>:
 80011e0:	b5f0      	push	{r4, r5, r6, r7, lr}
 80011e2:	4647      	mov	r7, r8
 80011e4:	46ce      	mov	lr, r9
 80011e6:	0004      	movs	r4, r0
 80011e8:	0018      	movs	r0, r3
 80011ea:	0016      	movs	r6, r2
 80011ec:	031b      	lsls	r3, r3, #12
 80011ee:	0b1b      	lsrs	r3, r3, #12
 80011f0:	4d2d      	ldr	r5, [pc, #180]	; (80012a8 <__gedf2+0xc8>)
 80011f2:	004a      	lsls	r2, r1, #1
 80011f4:	4699      	mov	r9, r3
 80011f6:	b580      	push	{r7, lr}
 80011f8:	0043      	lsls	r3, r0, #1
 80011fa:	030f      	lsls	r7, r1, #12
 80011fc:	46a4      	mov	ip, r4
 80011fe:	46b0      	mov	r8, r6
 8001200:	0b3f      	lsrs	r7, r7, #12
 8001202:	0d52      	lsrs	r2, r2, #21
 8001204:	0fc9      	lsrs	r1, r1, #31
 8001206:	0d5b      	lsrs	r3, r3, #21
 8001208:	0fc0      	lsrs	r0, r0, #31
 800120a:	42aa      	cmp	r2, r5
 800120c:	d021      	beq.n	8001252 <__gedf2+0x72>
 800120e:	42ab      	cmp	r3, r5
 8001210:	d013      	beq.n	800123a <__gedf2+0x5a>
 8001212:	2a00      	cmp	r2, #0
 8001214:	d122      	bne.n	800125c <__gedf2+0x7c>
 8001216:	433c      	orrs	r4, r7
 8001218:	2b00      	cmp	r3, #0
 800121a:	d102      	bne.n	8001222 <__gedf2+0x42>
 800121c:	464d      	mov	r5, r9
 800121e:	432e      	orrs	r6, r5
 8001220:	d022      	beq.n	8001268 <__gedf2+0x88>
 8001222:	2c00      	cmp	r4, #0
 8001224:	d010      	beq.n	8001248 <__gedf2+0x68>
 8001226:	4281      	cmp	r1, r0
 8001228:	d022      	beq.n	8001270 <__gedf2+0x90>
 800122a:	2002      	movs	r0, #2
 800122c:	3901      	subs	r1, #1
 800122e:	4008      	ands	r0, r1
 8001230:	3801      	subs	r0, #1
 8001232:	bcc0      	pop	{r6, r7}
 8001234:	46b9      	mov	r9, r7
 8001236:	46b0      	mov	r8, r6
 8001238:	bdf0      	pop	{r4, r5, r6, r7, pc}
 800123a:	464d      	mov	r5, r9
 800123c:	432e      	orrs	r6, r5
 800123e:	d129      	bne.n	8001294 <__gedf2+0xb4>
 8001240:	2a00      	cmp	r2, #0
 8001242:	d1f0      	bne.n	8001226 <__gedf2+0x46>
 8001244:	433c      	orrs	r4, r7
 8001246:	d1ee      	bne.n	8001226 <__gedf2+0x46>
 8001248:	2800      	cmp	r0, #0
 800124a:	d1f2      	bne.n	8001232 <__gedf2+0x52>
 800124c:	2001      	movs	r0, #1
 800124e:	4240      	negs	r0, r0
 8001250:	e7ef      	b.n	8001232 <__gedf2+0x52>
 8001252:	003d      	movs	r5, r7
 8001254:	4325      	orrs	r5, r4
 8001256:	d11d      	bne.n	8001294 <__gedf2+0xb4>
 8001258:	4293      	cmp	r3, r2
 800125a:	d0ee      	beq.n	800123a <__gedf2+0x5a>
 800125c:	2b00      	cmp	r3, #0
 800125e:	d1e2      	bne.n	8001226 <__gedf2+0x46>
 8001260:	464c      	mov	r4, r9
 8001262:	4326      	orrs	r6, r4
 8001264:	d1df      	bne.n	8001226 <__gedf2+0x46>
 8001266:	e7e0      	b.n	800122a <__gedf2+0x4a>
 8001268:	2000      	movs	r0, #0
 800126a:	2c00      	cmp	r4, #0
 800126c:	d0e1      	beq.n	8001232 <__gedf2+0x52>
 800126e:	e7dc      	b.n	800122a <__gedf2+0x4a>
 8001270:	429a      	cmp	r2, r3
 8001272:	dc0a      	bgt.n	800128a <__gedf2+0xaa>
 8001274:	dbe8      	blt.n	8001248 <__gedf2+0x68>
 8001276:	454f      	cmp	r7, r9
 8001278:	d8d7      	bhi.n	800122a <__gedf2+0x4a>
 800127a:	d00e      	beq.n	800129a <__gedf2+0xba>
 800127c:	2000      	movs	r0, #0
 800127e:	454f      	cmp	r7, r9
 8001280:	d2d7      	bcs.n	8001232 <__gedf2+0x52>
 8001282:	2900      	cmp	r1, #0
 8001284:	d0e2      	beq.n	800124c <__gedf2+0x6c>
 8001286:	0008      	movs	r0, r1
 8001288:	e7d3      	b.n	8001232 <__gedf2+0x52>
 800128a:	4243      	negs	r3, r0
 800128c:	4158      	adcs	r0, r3
 800128e:	0040      	lsls	r0, r0, #1
 8001290:	3801      	subs	r0, #1
 8001292:	e7ce      	b.n	8001232 <__gedf2+0x52>
 8001294:	2002      	movs	r0, #2
 8001296:	4240      	negs	r0, r0
 8001298:	e7cb      	b.n	8001232 <__gedf2+0x52>
 800129a:	45c4      	cmp	ip, r8
 800129c:	d8c5      	bhi.n	800122a <__gedf2+0x4a>
 800129e:	2000      	movs	r0, #0
 80012a0:	45c4      	cmp	ip, r8
 80012a2:	d2c6      	bcs.n	8001232 <__gedf2+0x52>
 80012a4:	e7ed      	b.n	8001282 <__gedf2+0xa2>
 80012a6:	46c0      	nop			; (mov r8, r8)
 80012a8:	000007ff 	.word	0x000007ff

080012ac <__ledf2>:
 80012ac:	b5f0      	push	{r4, r5, r6, r7, lr}
 80012ae:	4647      	mov	r7, r8
 80012b0:	46ce      	mov	lr, r9
 80012b2:	0004      	movs	r4, r0
 80012b4:	0018      	movs	r0, r3
 80012b6:	0016      	movs	r6, r2
 80012b8:	031b      	lsls	r3, r3, #12
 80012ba:	0b1b      	lsrs	r3, r3, #12
 80012bc:	4d2c      	ldr	r5, [pc, #176]	; (8001370 <__ledf2+0xc4>)
 80012be:	004a      	lsls	r2, r1, #1
 80012c0:	4699      	mov	r9, r3
 80012c2:	b580      	push	{r7, lr}
 80012c4:	0043      	lsls	r3, r0, #1
 80012c6:	030f      	lsls	r7, r1, #12
 80012c8:	46a4      	mov	ip, r4
 80012ca:	46b0      	mov	r8, r6
 80012cc:	0b3f      	lsrs	r7, r7, #12
 80012ce:	0d52      	lsrs	r2, r2, #21
 80012d0:	0fc9      	lsrs	r1, r1, #31
 80012d2:	0d5b      	lsrs	r3, r3, #21
 80012d4:	0fc0      	lsrs	r0, r0, #31
 80012d6:	42aa      	cmp	r2, r5
 80012d8:	d00d      	beq.n	80012f6 <__ledf2+0x4a>
 80012da:	42ab      	cmp	r3, r5
 80012dc:	d010      	beq.n	8001300 <__ledf2+0x54>
 80012de:	2a00      	cmp	r2, #0
 80012e0:	d127      	bne.n	8001332 <__ledf2+0x86>
 80012e2:	433c      	orrs	r4, r7
 80012e4:	2b00      	cmp	r3, #0
 80012e6:	d111      	bne.n	800130c <__ledf2+0x60>
 80012e8:	464d      	mov	r5, r9
 80012ea:	432e      	orrs	r6, r5
 80012ec:	d10e      	bne.n	800130c <__ledf2+0x60>
 80012ee:	2000      	movs	r0, #0
 80012f0:	2c00      	cmp	r4, #0
 80012f2:	d015      	beq.n	8001320 <__ledf2+0x74>
 80012f4:	e00e      	b.n	8001314 <__ledf2+0x68>
 80012f6:	003d      	movs	r5, r7
 80012f8:	4325      	orrs	r5, r4
 80012fa:	d110      	bne.n	800131e <__ledf2+0x72>
 80012fc:	4293      	cmp	r3, r2
 80012fe:	d118      	bne.n	8001332 <__ledf2+0x86>
 8001300:	464d      	mov	r5, r9
 8001302:	432e      	orrs	r6, r5
 8001304:	d10b      	bne.n	800131e <__ledf2+0x72>
 8001306:	2a00      	cmp	r2, #0
 8001308:	d102      	bne.n	8001310 <__ledf2+0x64>
 800130a:	433c      	orrs	r4, r7
 800130c:	2c00      	cmp	r4, #0
 800130e:	d00b      	beq.n	8001328 <__ledf2+0x7c>
 8001310:	4281      	cmp	r1, r0
 8001312:	d014      	beq.n	800133e <__ledf2+0x92>
 8001314:	2002      	movs	r0, #2
 8001316:	3901      	subs	r1, #1
 8001318:	4008      	ands	r0, r1
 800131a:	3801      	subs	r0, #1
 800131c:	e000      	b.n	8001320 <__ledf2+0x74>
 800131e:	2002      	movs	r0, #2
 8001320:	bcc0      	pop	{r6, r7}
 8001322:	46b9      	mov	r9, r7
 8001324:	46b0      	mov	r8, r6
 8001326:	bdf0      	pop	{r4, r5, r6, r7, pc}
 8001328:	2800      	cmp	r0, #0
 800132a:	d1f9      	bne.n	8001320 <__ledf2+0x74>
 800132c:	2001      	movs	r0, #1
 800132e:	4240      	negs	r0, r0
 8001330:	e7f6      	b.n	8001320 <__ledf2+0x74>
 8001332:	2b00      	cmp	r3, #0
 8001334:	d1ec      	bne.n	8001310 <__ledf2+0x64>
 8001336:	464c      	mov	r4, r9
 8001338:	4326      	orrs	r6, r4
 800133a:	d1e9      	bne.n	8001310 <__ledf2+0x64>
 800133c:	e7ea      	b.n	8001314 <__ledf2+0x68>
 800133e:	429a      	cmp	r2, r3
 8001340:	dd04      	ble.n	800134c <__ledf2+0xa0>
 8001342:	4243      	negs	r3, r0
 8001344:	4158      	adcs	r0, r3
 8001346:	0040      	lsls	r0, r0, #1
 8001348:	3801      	subs	r0, #1
 800134a:	e7e9      	b.n	8001320 <__ledf2+0x74>
 800134c:	429a      	cmp	r2, r3
 800134e:	dbeb      	blt.n	8001328 <__ledf2+0x7c>
 8001350:	454f      	cmp	r7, r9
 8001352:	d8df      	bhi.n	8001314 <__ledf2+0x68>
 8001354:	d006      	beq.n	8001364 <__ledf2+0xb8>
 8001356:	2000      	movs	r0, #0
 8001358:	454f      	cmp	r7, r9
 800135a:	d2e1      	bcs.n	8001320 <__ledf2+0x74>
 800135c:	2900      	cmp	r1, #0
 800135e:	d0e5      	beq.n	800132c <__ledf2+0x80>
 8001360:	0008      	movs	r0, r1
 8001362:	e7dd      	b.n	8001320 <__ledf2+0x74>
 8001364:	45c4      	cmp	ip, r8
 8001366:	d8d5      	bhi.n	8001314 <__ledf2+0x68>
 8001368:	2000      	movs	r0, #0
 800136a:	45c4      	cmp	ip, r8
 800136c:	d2d8      	bcs.n	8001320 <__ledf2+0x74>
 800136e:	e7f5      	b.n	800135c <__ledf2+0xb0>
 8001370:	000007ff 	.word	0x000007ff

08001374 <__aeabi_dmul>:
 8001374:	b5f0      	push	{r4, r5, r6, r7, lr}
 8001376:	4657      	mov	r7, sl
 8001378:	464e      	mov	r6, r9
 800137a:	4645      	mov	r5, r8
 800137c:	46de      	mov	lr, fp
 800137e:	b5e0      	push	{r5, r6, r7, lr}
 8001380:	4698      	mov	r8, r3
 8001382:	030c      	lsls	r4, r1, #12
 8001384:	004b      	lsls	r3, r1, #1
 8001386:	0006      	movs	r6, r0
 8001388:	4692      	mov	sl, r2
 800138a:	b087      	sub	sp, #28
 800138c:	0b24      	lsrs	r4, r4, #12
 800138e:	0d5b      	lsrs	r3, r3, #21
 8001390:	0fcf      	lsrs	r7, r1, #31
 8001392:	2b00      	cmp	r3, #0
 8001394:	d100      	bne.n	8001398 <__aeabi_dmul+0x24>
 8001396:	e15c      	b.n	8001652 <__aeabi_dmul+0x2de>
 8001398:	4ad9      	ldr	r2, [pc, #868]	; (8001700 <__aeabi_dmul+0x38c>)
 800139a:	4293      	cmp	r3, r2
 800139c:	d100      	bne.n	80013a0 <__aeabi_dmul+0x2c>
 800139e:	e175      	b.n	800168c <__aeabi_dmul+0x318>
 80013a0:	0f42      	lsrs	r2, r0, #29
 80013a2:	00e4      	lsls	r4, r4, #3
 80013a4:	4314      	orrs	r4, r2
 80013a6:	2280      	movs	r2, #128	; 0x80
 80013a8:	0412      	lsls	r2, r2, #16
 80013aa:	4314      	orrs	r4, r2
 80013ac:	4ad5      	ldr	r2, [pc, #852]	; (8001704 <__aeabi_dmul+0x390>)
 80013ae:	00c5      	lsls	r5, r0, #3
 80013b0:	4694      	mov	ip, r2
 80013b2:	4463      	add	r3, ip
 80013b4:	9300      	str	r3, [sp, #0]
 80013b6:	2300      	movs	r3, #0
 80013b8:	4699      	mov	r9, r3
 80013ba:	469b      	mov	fp, r3
 80013bc:	4643      	mov	r3, r8
 80013be:	4642      	mov	r2, r8
 80013c0:	031e      	lsls	r6, r3, #12
 80013c2:	0fd2      	lsrs	r2, r2, #31
 80013c4:	005b      	lsls	r3, r3, #1
 80013c6:	4650      	mov	r0, sl
 80013c8:	4690      	mov	r8, r2
 80013ca:	0b36      	lsrs	r6, r6, #12
 80013cc:	0d5b      	lsrs	r3, r3, #21
 80013ce:	d100      	bne.n	80013d2 <__aeabi_dmul+0x5e>
 80013d0:	e120      	b.n	8001614 <__aeabi_dmul+0x2a0>
 80013d2:	4acb      	ldr	r2, [pc, #812]	; (8001700 <__aeabi_dmul+0x38c>)
 80013d4:	4293      	cmp	r3, r2
 80013d6:	d100      	bne.n	80013da <__aeabi_dmul+0x66>
 80013d8:	e162      	b.n	80016a0 <__aeabi_dmul+0x32c>
 80013da:	49ca      	ldr	r1, [pc, #808]	; (8001704 <__aeabi_dmul+0x390>)
 80013dc:	0f42      	lsrs	r2, r0, #29
 80013de:	468c      	mov	ip, r1
 80013e0:	9900      	ldr	r1, [sp, #0]
 80013e2:	4463      	add	r3, ip
 80013e4:	00f6      	lsls	r6, r6, #3
 80013e6:	468c      	mov	ip, r1
 80013e8:	4316      	orrs	r6, r2
 80013ea:	2280      	movs	r2, #128	; 0x80
 80013ec:	449c      	add	ip, r3
 80013ee:	0412      	lsls	r2, r2, #16
 80013f0:	4663      	mov	r3, ip
 80013f2:	4316      	orrs	r6, r2
 80013f4:	00c2      	lsls	r2, r0, #3
 80013f6:	2000      	movs	r0, #0
 80013f8:	9300      	str	r3, [sp, #0]
 80013fa:	9900      	ldr	r1, [sp, #0]
 80013fc:	4643      	mov	r3, r8
 80013fe:	3101      	adds	r1, #1
 8001400:	468c      	mov	ip, r1
 8001402:	4649      	mov	r1, r9
 8001404:	407b      	eors	r3, r7
 8001406:	9301      	str	r3, [sp, #4]
 8001408:	290f      	cmp	r1, #15
 800140a:	d826      	bhi.n	800145a <__aeabi_dmul+0xe6>
 800140c:	4bbe      	ldr	r3, [pc, #760]	; (8001708 <__aeabi_dmul+0x394>)
 800140e:	0089      	lsls	r1, r1, #2
 8001410:	5859      	ldr	r1, [r3, r1]
 8001412:	468f      	mov	pc, r1
 8001414:	4643      	mov	r3, r8
 8001416:	9301      	str	r3, [sp, #4]
 8001418:	0034      	movs	r4, r6
 800141a:	0015      	movs	r5, r2
 800141c:	4683      	mov	fp, r0
 800141e:	465b      	mov	r3, fp
 8001420:	2b02      	cmp	r3, #2
 8001422:	d016      	beq.n	8001452 <__aeabi_dmul+0xde>
 8001424:	2b03      	cmp	r3, #3
 8001426:	d100      	bne.n	800142a <__aeabi_dmul+0xb6>
 8001428:	e203      	b.n	8001832 <__aeabi_dmul+0x4be>
 800142a:	2b01      	cmp	r3, #1
 800142c:	d000      	beq.n	8001430 <__aeabi_dmul+0xbc>
 800142e:	e0cd      	b.n	80015cc <__aeabi_dmul+0x258>
 8001430:	2200      	movs	r2, #0
 8001432:	2400      	movs	r4, #0
 8001434:	2500      	movs	r5, #0
 8001436:	9b01      	ldr	r3, [sp, #4]
 8001438:	0512      	lsls	r2, r2, #20
 800143a:	4322      	orrs	r2, r4
 800143c:	07db      	lsls	r3, r3, #31
 800143e:	431a      	orrs	r2, r3
 8001440:	0028      	movs	r0, r5
 8001442:	0011      	movs	r1, r2
 8001444:	b007      	add	sp, #28
 8001446:	bcf0      	pop	{r4, r5, r6, r7}
 8001448:	46bb      	mov	fp, r7
 800144a:	46b2      	mov	sl, r6
 800144c:	46a9      	mov	r9, r5
 800144e:	46a0      	mov	r8, r4
 8001450:	bdf0      	pop	{r4, r5, r6, r7, pc}
 8001452:	2400      	movs	r4, #0
 8001454:	2500      	movs	r5, #0
 8001456:	4aaa      	ldr	r2, [pc, #680]	; (8001700 <__aeabi_dmul+0x38c>)
 8001458:	e7ed      	b.n	8001436 <__aeabi_dmul+0xc2>
 800145a:	0c28      	lsrs	r0, r5, #16
 800145c:	042d      	lsls	r5, r5, #16
 800145e:	0c2d      	lsrs	r5, r5, #16
 8001460:	002b      	movs	r3, r5
 8001462:	0c11      	lsrs	r1, r2, #16
 8001464:	0412      	lsls	r2, r2, #16
 8001466:	0c12      	lsrs	r2, r2, #16
 8001468:	4353      	muls	r3, r2
 800146a:	4698      	mov	r8, r3
 800146c:	0013      	movs	r3, r2
 800146e:	002f      	movs	r7, r5
 8001470:	4343      	muls	r3, r0
 8001472:	4699      	mov	r9, r3
 8001474:	434f      	muls	r7, r1
 8001476:	444f      	add	r7, r9
 8001478:	46bb      	mov	fp, r7
 800147a:	4647      	mov	r7, r8
 800147c:	000b      	movs	r3, r1
 800147e:	0c3f      	lsrs	r7, r7, #16
 8001480:	46ba      	mov	sl, r7
 8001482:	4343      	muls	r3, r0
 8001484:	44da      	add	sl, fp
 8001486:	9302      	str	r3, [sp, #8]
 8001488:	45d1      	cmp	r9, sl
 800148a:	d904      	bls.n	8001496 <__aeabi_dmul+0x122>
 800148c:	2780      	movs	r7, #128	; 0x80
 800148e:	027f      	lsls	r7, r7, #9
 8001490:	46b9      	mov	r9, r7
 8001492:	444b      	add	r3, r9
 8001494:	9302      	str	r3, [sp, #8]
 8001496:	4653      	mov	r3, sl
 8001498:	0c1b      	lsrs	r3, r3, #16
 800149a:	469b      	mov	fp, r3
 800149c:	4653      	mov	r3, sl
 800149e:	041f      	lsls	r7, r3, #16
 80014a0:	4643      	mov	r3, r8
 80014a2:	041b      	lsls	r3, r3, #16
 80014a4:	0c1b      	lsrs	r3, r3, #16
 80014a6:	4698      	mov	r8, r3
 80014a8:	003b      	movs	r3, r7
 80014aa:	4443      	add	r3, r8
 80014ac:	9304      	str	r3, [sp, #16]
 80014ae:	0c33      	lsrs	r3, r6, #16
 80014b0:	0436      	lsls	r6, r6, #16
 80014b2:	0c36      	lsrs	r6, r6, #16
 80014b4:	4698      	mov	r8, r3
 80014b6:	0033      	movs	r3, r6
 80014b8:	4343      	muls	r3, r0
 80014ba:	4699      	mov	r9, r3
 80014bc:	4643      	mov	r3, r8
 80014be:	4343      	muls	r3, r0
 80014c0:	002f      	movs	r7, r5
 80014c2:	469a      	mov	sl, r3
 80014c4:	4643      	mov	r3, r8
 80014c6:	4377      	muls	r7, r6
 80014c8:	435d      	muls	r5, r3
 80014ca:	0c38      	lsrs	r0, r7, #16
 80014cc:	444d      	add	r5, r9
 80014ce:	1945      	adds	r5, r0, r5
 80014d0:	45a9      	cmp	r9, r5
 80014d2:	d903      	bls.n	80014dc <__aeabi_dmul+0x168>
 80014d4:	2380      	movs	r3, #128	; 0x80
 80014d6:	025b      	lsls	r3, r3, #9
 80014d8:	4699      	mov	r9, r3
 80014da:	44ca      	add	sl, r9
 80014dc:	043f      	lsls	r7, r7, #16
 80014de:	0c28      	lsrs	r0, r5, #16
 80014e0:	0c3f      	lsrs	r7, r7, #16
 80014e2:	042d      	lsls	r5, r5, #16
 80014e4:	19ed      	adds	r5, r5, r7
 80014e6:	0c27      	lsrs	r7, r4, #16
 80014e8:	0424      	lsls	r4, r4, #16
 80014ea:	0c24      	lsrs	r4, r4, #16
 80014ec:	0003      	movs	r3, r0
 80014ee:	0020      	movs	r0, r4
 80014f0:	4350      	muls	r0, r2
 80014f2:	437a      	muls	r2, r7
 80014f4:	4691      	mov	r9, r2
 80014f6:	003a      	movs	r2, r7
 80014f8:	4453      	add	r3, sl
 80014fa:	9305      	str	r3, [sp, #20]
 80014fc:	0c03      	lsrs	r3, r0, #16
 80014fe:	469a      	mov	sl, r3
 8001500:	434a      	muls	r2, r1
 8001502:	4361      	muls	r1, r4
 8001504:	4449      	add	r1, r9
 8001506:	4451      	add	r1, sl
 8001508:	44ab      	add	fp, r5
 800150a:	4589      	cmp	r9, r1
 800150c:	d903      	bls.n	8001516 <__aeabi_dmul+0x1a2>
 800150e:	2380      	movs	r3, #128	; 0x80
 8001510:	025b      	lsls	r3, r3, #9
 8001512:	4699      	mov	r9, r3
 8001514:	444a      	add	r2, r9
 8001516:	0400      	lsls	r0, r0, #16
 8001518:	0c0b      	lsrs	r3, r1, #16
 800151a:	0c00      	lsrs	r0, r0, #16
 800151c:	0409      	lsls	r1, r1, #16
 800151e:	1809      	adds	r1, r1, r0
 8001520:	0020      	movs	r0, r4
 8001522:	4699      	mov	r9, r3
 8001524:	4643      	mov	r3, r8
 8001526:	4370      	muls	r0, r6
 8001528:	435c      	muls	r4, r3
 800152a:	437e      	muls	r6, r7
 800152c:	435f      	muls	r7, r3
 800152e:	0c03      	lsrs	r3, r0, #16
 8001530:	4698      	mov	r8, r3
 8001532:	19a4      	adds	r4, r4, r6
 8001534:	4444      	add	r4, r8
 8001536:	444a      	add	r2, r9
 8001538:	9703      	str	r7, [sp, #12]
 800153a:	42a6      	cmp	r6, r4
 800153c:	d904      	bls.n	8001548 <__aeabi_dmul+0x1d4>
 800153e:	2380      	movs	r3, #128	; 0x80
 8001540:	025b      	lsls	r3, r3, #9
 8001542:	4698      	mov	r8, r3
 8001544:	4447      	add	r7, r8
 8001546:	9703      	str	r7, [sp, #12]
 8001548:	0423      	lsls	r3, r4, #16
 800154a:	9e02      	ldr	r6, [sp, #8]
 800154c:	469a      	mov	sl, r3
 800154e:	9b05      	ldr	r3, [sp, #20]
 8001550:	445e      	add	r6, fp
 8001552:	4698      	mov	r8, r3
 8001554:	42ae      	cmp	r6, r5
 8001556:	41ad      	sbcs	r5, r5
 8001558:	1876      	adds	r6, r6, r1
 800155a:	428e      	cmp	r6, r1
 800155c:	4189      	sbcs	r1, r1
 800155e:	0400      	lsls	r0, r0, #16
 8001560:	0c00      	lsrs	r0, r0, #16
 8001562:	4450      	add	r0, sl
 8001564:	4440      	add	r0, r8
 8001566:	426d      	negs	r5, r5
 8001568:	1947      	adds	r7, r0, r5
 800156a:	46b8      	mov	r8, r7
 800156c:	4693      	mov	fp, r2
 800156e:	4249      	negs	r1, r1
 8001570:	4689      	mov	r9, r1
 8001572:	44c3      	add	fp, r8
 8001574:	44d9      	add	r9, fp
 8001576:	4298      	cmp	r0, r3
 8001578:	4180      	sbcs	r0, r0
 800157a:	45a8      	cmp	r8, r5
 800157c:	41ad      	sbcs	r5, r5
 800157e:	4593      	cmp	fp, r2
 8001580:	4192      	sbcs	r2, r2
 8001582:	4589      	cmp	r9, r1
 8001584:	4189      	sbcs	r1, r1
 8001586:	426d      	negs	r5, r5
 8001588:	4240      	negs	r0, r0
 800158a:	4328      	orrs	r0, r5
 800158c:	0c24      	lsrs	r4, r4, #16
 800158e:	4252      	negs	r2, r2
 8001590:	4249      	negs	r1, r1
 8001592:	430a      	orrs	r2, r1
 8001594:	9b03      	ldr	r3, [sp, #12]
 8001596:	1900      	adds	r0, r0, r4
 8001598:	1880      	adds	r0, r0, r2
 800159a:	18c7      	adds	r7, r0, r3
 800159c:	464b      	mov	r3, r9
 800159e:	0ddc      	lsrs	r4, r3, #23
 80015a0:	9b04      	ldr	r3, [sp, #16]
 80015a2:	0275      	lsls	r5, r6, #9
 80015a4:	431d      	orrs	r5, r3
 80015a6:	1e6a      	subs	r2, r5, #1
 80015a8:	4195      	sbcs	r5, r2
 80015aa:	464b      	mov	r3, r9
 80015ac:	0df6      	lsrs	r6, r6, #23
 80015ae:	027f      	lsls	r7, r7, #9
 80015b0:	4335      	orrs	r5, r6
 80015b2:	025a      	lsls	r2, r3, #9
 80015b4:	433c      	orrs	r4, r7
 80015b6:	4315      	orrs	r5, r2
 80015b8:	01fb      	lsls	r3, r7, #7
 80015ba:	d400      	bmi.n	80015be <__aeabi_dmul+0x24a>
 80015bc:	e11c      	b.n	80017f8 <__aeabi_dmul+0x484>
 80015be:	2101      	movs	r1, #1
 80015c0:	086a      	lsrs	r2, r5, #1
 80015c2:	400d      	ands	r5, r1
 80015c4:	4315      	orrs	r5, r2
 80015c6:	07e2      	lsls	r2, r4, #31
 80015c8:	4315      	orrs	r5, r2
 80015ca:	0864      	lsrs	r4, r4, #1
 80015cc:	494f      	ldr	r1, [pc, #316]	; (800170c <__aeabi_dmul+0x398>)
 80015ce:	4461      	add	r1, ip
 80015d0:	2900      	cmp	r1, #0
 80015d2:	dc00      	bgt.n	80015d6 <__aeabi_dmul+0x262>
 80015d4:	e0b0      	b.n	8001738 <__aeabi_dmul+0x3c4>
 80015d6:	076b      	lsls	r3, r5, #29
 80015d8:	d009      	beq.n	80015ee <__aeabi_dmul+0x27a>
 80015da:	220f      	movs	r2, #15
 80015dc:	402a      	ands	r2, r5
 80015de:	2a04      	cmp	r2, #4
 80015e0:	d005      	beq.n	80015ee <__aeabi_dmul+0x27a>
 80015e2:	1d2a      	adds	r2, r5, #4
 80015e4:	42aa      	cmp	r2, r5
 80015e6:	41ad      	sbcs	r5, r5
 80015e8:	426d      	negs	r5, r5
 80015ea:	1964      	adds	r4, r4, r5
 80015ec:	0015      	movs	r5, r2
 80015ee:	01e3      	lsls	r3, r4, #7
 80015f0:	d504      	bpl.n	80015fc <__aeabi_dmul+0x288>
 80015f2:	2180      	movs	r1, #128	; 0x80
 80015f4:	4a46      	ldr	r2, [pc, #280]	; (8001710 <__aeabi_dmul+0x39c>)
 80015f6:	00c9      	lsls	r1, r1, #3
 80015f8:	4014      	ands	r4, r2
 80015fa:	4461      	add	r1, ip
 80015fc:	4a45      	ldr	r2, [pc, #276]	; (8001714 <__aeabi_dmul+0x3a0>)
 80015fe:	4291      	cmp	r1, r2
 8001600:	dd00      	ble.n	8001604 <__aeabi_dmul+0x290>
 8001602:	e726      	b.n	8001452 <__aeabi_dmul+0xde>
 8001604:	0762      	lsls	r2, r4, #29
 8001606:	08ed      	lsrs	r5, r5, #3
 8001608:	0264      	lsls	r4, r4, #9
 800160a:	0549      	lsls	r1, r1, #21
 800160c:	4315      	orrs	r5, r2
 800160e:	0b24      	lsrs	r4, r4, #12
 8001610:	0d4a      	lsrs	r2, r1, #21
 8001612:	e710      	b.n	8001436 <__aeabi_dmul+0xc2>
 8001614:	4652      	mov	r2, sl
 8001616:	4332      	orrs	r2, r6
 8001618:	d100      	bne.n	800161c <__aeabi_dmul+0x2a8>
 800161a:	e07f      	b.n	800171c <__aeabi_dmul+0x3a8>
 800161c:	2e00      	cmp	r6, #0
 800161e:	d100      	bne.n	8001622 <__aeabi_dmul+0x2ae>
 8001620:	e0dc      	b.n	80017dc <__aeabi_dmul+0x468>
 8001622:	0030      	movs	r0, r6
 8001624:	f000 fd00 	bl	8002028 <__clzsi2>
 8001628:	0002      	movs	r2, r0
 800162a:	3a0b      	subs	r2, #11
 800162c:	231d      	movs	r3, #29
 800162e:	0001      	movs	r1, r0
 8001630:	1a9b      	subs	r3, r3, r2
 8001632:	4652      	mov	r2, sl
 8001634:	3908      	subs	r1, #8
 8001636:	40da      	lsrs	r2, r3
 8001638:	408e      	lsls	r6, r1
 800163a:	4316      	orrs	r6, r2
 800163c:	4652      	mov	r2, sl
 800163e:	408a      	lsls	r2, r1
 8001640:	9b00      	ldr	r3, [sp, #0]
 8001642:	4935      	ldr	r1, [pc, #212]	; (8001718 <__aeabi_dmul+0x3a4>)
 8001644:	1a18      	subs	r0, r3, r0
 8001646:	0003      	movs	r3, r0
 8001648:	468c      	mov	ip, r1
 800164a:	4463      	add	r3, ip
 800164c:	2000      	movs	r0, #0
 800164e:	9300      	str	r3, [sp, #0]
 8001650:	e6d3      	b.n	80013fa <__aeabi_dmul+0x86>
 8001652:	0025      	movs	r5, r4
 8001654:	4305      	orrs	r5, r0
 8001656:	d04a      	beq.n	80016ee <__aeabi_dmul+0x37a>
 8001658:	2c00      	cmp	r4, #0
 800165a:	d100      	bne.n	800165e <__aeabi_dmul+0x2ea>
 800165c:	e0b0      	b.n	80017c0 <__aeabi_dmul+0x44c>
 800165e:	0020      	movs	r0, r4
 8001660:	f000 fce2 	bl	8002028 <__clzsi2>
 8001664:	0001      	movs	r1, r0
 8001666:	0002      	movs	r2, r0
 8001668:	390b      	subs	r1, #11
 800166a:	231d      	movs	r3, #29
 800166c:	0010      	movs	r0, r2
 800166e:	1a5b      	subs	r3, r3, r1
 8001670:	0031      	movs	r1, r6
 8001672:	0035      	movs	r5, r6
 8001674:	3808      	subs	r0, #8
 8001676:	4084      	lsls	r4, r0
 8001678:	40d9      	lsrs	r1, r3
 800167a:	4085      	lsls	r5, r0
 800167c:	430c      	orrs	r4, r1
 800167e:	4826      	ldr	r0, [pc, #152]	; (8001718 <__aeabi_dmul+0x3a4>)
 8001680:	1a83      	subs	r3, r0, r2
 8001682:	9300      	str	r3, [sp, #0]
 8001684:	2300      	movs	r3, #0
 8001686:	4699      	mov	r9, r3
 8001688:	469b      	mov	fp, r3
 800168a:	e697      	b.n	80013bc <__aeabi_dmul+0x48>
 800168c:	0005      	movs	r5, r0
 800168e:	4325      	orrs	r5, r4
 8001690:	d126      	bne.n	80016e0 <__aeabi_dmul+0x36c>
 8001692:	2208      	movs	r2, #8
 8001694:	9300      	str	r3, [sp, #0]
 8001696:	2302      	movs	r3, #2
 8001698:	2400      	movs	r4, #0
 800169a:	4691      	mov	r9, r2
 800169c:	469b      	mov	fp, r3
 800169e:	e68d      	b.n	80013bc <__aeabi_dmul+0x48>
 80016a0:	4652      	mov	r2, sl
 80016a2:	9b00      	ldr	r3, [sp, #0]
 80016a4:	4332      	orrs	r2, r6
 80016a6:	d110      	bne.n	80016ca <__aeabi_dmul+0x356>
 80016a8:	4915      	ldr	r1, [pc, #84]	; (8001700 <__aeabi_dmul+0x38c>)
 80016aa:	2600      	movs	r6, #0
 80016ac:	468c      	mov	ip, r1
 80016ae:	4463      	add	r3, ip
 80016b0:	4649      	mov	r1, r9
 80016b2:	9300      	str	r3, [sp, #0]
 80016b4:	2302      	movs	r3, #2
 80016b6:	4319      	orrs	r1, r3
 80016b8:	4689      	mov	r9, r1
 80016ba:	2002      	movs	r0, #2
 80016bc:	e69d      	b.n	80013fa <__aeabi_dmul+0x86>
 80016be:	465b      	mov	r3, fp
 80016c0:	9701      	str	r7, [sp, #4]
 80016c2:	2b02      	cmp	r3, #2
 80016c4:	d000      	beq.n	80016c8 <__aeabi_dmul+0x354>
 80016c6:	e6ad      	b.n	8001424 <__aeabi_dmul+0xb0>
 80016c8:	e6c3      	b.n	8001452 <__aeabi_dmul+0xde>
 80016ca:	4a0d      	ldr	r2, [pc, #52]	; (8001700 <__aeabi_dmul+0x38c>)
 80016cc:	2003      	movs	r0, #3
 80016ce:	4694      	mov	ip, r2
 80016d0:	4463      	add	r3, ip
 80016d2:	464a      	mov	r2, r9
 80016d4:	9300      	str	r3, [sp, #0]
 80016d6:	2303      	movs	r3, #3
 80016d8:	431a      	orrs	r2, r3
 80016da:	4691      	mov	r9, r2
 80016dc:	4652      	mov	r2, sl
 80016de:	e68c      	b.n	80013fa <__aeabi_dmul+0x86>
 80016e0:	220c      	movs	r2, #12
 80016e2:	9300      	str	r3, [sp, #0]
 80016e4:	2303      	movs	r3, #3
 80016e6:	0005      	movs	r5, r0
 80016e8:	4691      	mov	r9, r2
 80016ea:	469b      	mov	fp, r3
 80016ec:	e666      	b.n	80013bc <__aeabi_dmul+0x48>
 80016ee:	2304      	movs	r3, #4
 80016f0:	4699      	mov	r9, r3
 80016f2:	2300      	movs	r3, #0
 80016f4:	9300      	str	r3, [sp, #0]
 80016f6:	3301      	adds	r3, #1
 80016f8:	2400      	movs	r4, #0
 80016fa:	469b      	mov	fp, r3
 80016fc:	e65e      	b.n	80013bc <__aeabi_dmul+0x48>
 80016fe:	46c0      	nop			; (mov r8, r8)
 8001700:	000007ff 	.word	0x000007ff
 8001704:	fffffc01 	.word	0xfffffc01
 8001708:	08004614 	.word	0x08004614
 800170c:	000003ff 	.word	0x000003ff
 8001710:	feffffff 	.word	0xfeffffff
 8001714:	000007fe 	.word	0x000007fe
 8001718:	fffffc0d 	.word	0xfffffc0d
 800171c:	4649      	mov	r1, r9
 800171e:	2301      	movs	r3, #1
 8001720:	4319      	orrs	r1, r3
 8001722:	4689      	mov	r9, r1
 8001724:	2600      	movs	r6, #0
 8001726:	2001      	movs	r0, #1
 8001728:	e667      	b.n	80013fa <__aeabi_dmul+0x86>
 800172a:	2300      	movs	r3, #0
 800172c:	2480      	movs	r4, #128	; 0x80
 800172e:	2500      	movs	r5, #0
 8001730:	4a43      	ldr	r2, [pc, #268]	; (8001840 <__aeabi_dmul+0x4cc>)
 8001732:	9301      	str	r3, [sp, #4]
 8001734:	0324      	lsls	r4, r4, #12
 8001736:	e67e      	b.n	8001436 <__aeabi_dmul+0xc2>
 8001738:	2001      	movs	r0, #1
 800173a:	1a40      	subs	r0, r0, r1
 800173c:	2838      	cmp	r0, #56	; 0x38
 800173e:	dd00      	ble.n	8001742 <__aeabi_dmul+0x3ce>
 8001740:	e676      	b.n	8001430 <__aeabi_dmul+0xbc>
 8001742:	281f      	cmp	r0, #31
 8001744:	dd5b      	ble.n	80017fe <__aeabi_dmul+0x48a>
 8001746:	221f      	movs	r2, #31
 8001748:	0023      	movs	r3, r4
 800174a:	4252      	negs	r2, r2
 800174c:	1a51      	subs	r1, r2, r1
 800174e:	40cb      	lsrs	r3, r1
 8001750:	0019      	movs	r1, r3
 8001752:	2820      	cmp	r0, #32
 8001754:	d003      	beq.n	800175e <__aeabi_dmul+0x3ea>
 8001756:	4a3b      	ldr	r2, [pc, #236]	; (8001844 <__aeabi_dmul+0x4d0>)
 8001758:	4462      	add	r2, ip
 800175a:	4094      	lsls	r4, r2
 800175c:	4325      	orrs	r5, r4
 800175e:	1e6a      	subs	r2, r5, #1
 8001760:	4195      	sbcs	r5, r2
 8001762:	002a      	movs	r2, r5
 8001764:	430a      	orrs	r2, r1
 8001766:	2107      	movs	r1, #7
 8001768:	000d      	movs	r5, r1
 800176a:	2400      	movs	r4, #0
 800176c:	4015      	ands	r5, r2
 800176e:	4211      	tst	r1, r2
 8001770:	d05b      	beq.n	800182a <__aeabi_dmul+0x4b6>
 8001772:	210f      	movs	r1, #15
 8001774:	2400      	movs	r4, #0
 8001776:	4011      	ands	r1, r2
 8001778:	2904      	cmp	r1, #4
 800177a:	d053      	beq.n	8001824 <__aeabi_dmul+0x4b0>
 800177c:	1d11      	adds	r1, r2, #4
 800177e:	4291      	cmp	r1, r2
 8001780:	4192      	sbcs	r2, r2
 8001782:	4252      	negs	r2, r2
 8001784:	18a4      	adds	r4, r4, r2
 8001786:	000a      	movs	r2, r1
 8001788:	0223      	lsls	r3, r4, #8
 800178a:	d54b      	bpl.n	8001824 <__aeabi_dmul+0x4b0>
 800178c:	2201      	movs	r2, #1
 800178e:	2400      	movs	r4, #0
 8001790:	2500      	movs	r5, #0
 8001792:	e650      	b.n	8001436 <__aeabi_dmul+0xc2>
 8001794:	2380      	movs	r3, #128	; 0x80
 8001796:	031b      	lsls	r3, r3, #12
 8001798:	421c      	tst	r4, r3
 800179a:	d009      	beq.n	80017b0 <__aeabi_dmul+0x43c>
 800179c:	421e      	tst	r6, r3
 800179e:	d107      	bne.n	80017b0 <__aeabi_dmul+0x43c>
 80017a0:	4333      	orrs	r3, r6
 80017a2:	031c      	lsls	r4, r3, #12
 80017a4:	4643      	mov	r3, r8
 80017a6:	0015      	movs	r5, r2
 80017a8:	0b24      	lsrs	r4, r4, #12
 80017aa:	4a25      	ldr	r2, [pc, #148]	; (8001840 <__aeabi_dmul+0x4cc>)
 80017ac:	9301      	str	r3, [sp, #4]
 80017ae:	e642      	b.n	8001436 <__aeabi_dmul+0xc2>
 80017b0:	2280      	movs	r2, #128	; 0x80
 80017b2:	0312      	lsls	r2, r2, #12
 80017b4:	4314      	orrs	r4, r2
 80017b6:	0324      	lsls	r4, r4, #12
 80017b8:	4a21      	ldr	r2, [pc, #132]	; (8001840 <__aeabi_dmul+0x4cc>)
 80017ba:	0b24      	lsrs	r4, r4, #12
 80017bc:	9701      	str	r7, [sp, #4]
 80017be:	e63a      	b.n	8001436 <__aeabi_dmul+0xc2>
 80017c0:	f000 fc32 	bl	8002028 <__clzsi2>
 80017c4:	0001      	movs	r1, r0
 80017c6:	0002      	movs	r2, r0
 80017c8:	3115      	adds	r1, #21
 80017ca:	3220      	adds	r2, #32
 80017cc:	291c      	cmp	r1, #28
 80017ce:	dc00      	bgt.n	80017d2 <__aeabi_dmul+0x45e>
 80017d0:	e74b      	b.n	800166a <__aeabi_dmul+0x2f6>
 80017d2:	0034      	movs	r4, r6
 80017d4:	3808      	subs	r0, #8
 80017d6:	2500      	movs	r5, #0
 80017d8:	4084      	lsls	r4, r0
 80017da:	e750      	b.n	800167e <__aeabi_dmul+0x30a>
 80017dc:	f000 fc24 	bl	8002028 <__clzsi2>
 80017e0:	0003      	movs	r3, r0
 80017e2:	001a      	movs	r2, r3
 80017e4:	3215      	adds	r2, #21
 80017e6:	3020      	adds	r0, #32
 80017e8:	2a1c      	cmp	r2, #28
 80017ea:	dc00      	bgt.n	80017ee <__aeabi_dmul+0x47a>
 80017ec:	e71e      	b.n	800162c <__aeabi_dmul+0x2b8>
 80017ee:	4656      	mov	r6, sl
 80017f0:	3b08      	subs	r3, #8
 80017f2:	2200      	movs	r2, #0
 80017f4:	409e      	lsls	r6, r3
 80017f6:	e723      	b.n	8001640 <__aeabi_dmul+0x2cc>
 80017f8:	9b00      	ldr	r3, [sp, #0]
 80017fa:	469c      	mov	ip, r3
 80017fc:	e6e6      	b.n	80015cc <__aeabi_dmul+0x258>
 80017fe:	4912      	ldr	r1, [pc, #72]	; (8001848 <__aeabi_dmul+0x4d4>)
 8001800:	0022      	movs	r2, r4
 8001802:	4461      	add	r1, ip
 8001804:	002e      	movs	r6, r5
 8001806:	408d      	lsls	r5, r1
 8001808:	408a      	lsls	r2, r1
 800180a:	40c6      	lsrs	r6, r0
 800180c:	1e69      	subs	r1, r5, #1
 800180e:	418d      	sbcs	r5, r1
 8001810:	4332      	orrs	r2, r6
 8001812:	432a      	orrs	r2, r5
 8001814:	40c4      	lsrs	r4, r0
 8001816:	0753      	lsls	r3, r2, #29
 8001818:	d0b6      	beq.n	8001788 <__aeabi_dmul+0x414>
 800181a:	210f      	movs	r1, #15
 800181c:	4011      	ands	r1, r2
 800181e:	2904      	cmp	r1, #4
 8001820:	d1ac      	bne.n	800177c <__aeabi_dmul+0x408>
 8001822:	e7b1      	b.n	8001788 <__aeabi_dmul+0x414>
 8001824:	0765      	lsls	r5, r4, #29
 8001826:	0264      	lsls	r4, r4, #9
 8001828:	0b24      	lsrs	r4, r4, #12
 800182a:	08d2      	lsrs	r2, r2, #3
 800182c:	4315      	orrs	r5, r2
 800182e:	2200      	movs	r2, #0
 8001830:	e601      	b.n	8001436 <__aeabi_dmul+0xc2>
 8001832:	2280      	movs	r2, #128	; 0x80
 8001834:	0312      	lsls	r2, r2, #12
 8001836:	4314      	orrs	r4, r2
 8001838:	0324      	lsls	r4, r4, #12
 800183a:	4a01      	ldr	r2, [pc, #4]	; (8001840 <__aeabi_dmul+0x4cc>)
 800183c:	0b24      	lsrs	r4, r4, #12
 800183e:	e5fa      	b.n	8001436 <__aeabi_dmul+0xc2>
 8001840:	000007ff 	.word	0x000007ff
 8001844:	0000043e 	.word	0x0000043e
 8001848:	0000041e 	.word	0x0000041e

0800184c <__aeabi_dsub>:
 800184c:	b5f8      	push	{r3, r4, r5, r6, r7, lr}
 800184e:	4657      	mov	r7, sl
 8001850:	464e      	mov	r6, r9
 8001852:	4645      	mov	r5, r8
 8001854:	46de      	mov	lr, fp
 8001856:	b5e0      	push	{r5, r6, r7, lr}
 8001858:	001e      	movs	r6, r3
 800185a:	0017      	movs	r7, r2
 800185c:	004a      	lsls	r2, r1, #1
 800185e:	030b      	lsls	r3, r1, #12
 8001860:	0d52      	lsrs	r2, r2, #21
 8001862:	0a5b      	lsrs	r3, r3, #9
 8001864:	4690      	mov	r8, r2
 8001866:	0f42      	lsrs	r2, r0, #29
 8001868:	431a      	orrs	r2, r3
 800186a:	0fcd      	lsrs	r5, r1, #31
 800186c:	4ccd      	ldr	r4, [pc, #820]	; (8001ba4 <__aeabi_dsub+0x358>)
 800186e:	0331      	lsls	r1, r6, #12
 8001870:	00c3      	lsls	r3, r0, #3
 8001872:	4694      	mov	ip, r2
 8001874:	0070      	lsls	r0, r6, #1
 8001876:	0f7a      	lsrs	r2, r7, #29
 8001878:	0a49      	lsrs	r1, r1, #9
 800187a:	00ff      	lsls	r7, r7, #3
 800187c:	469a      	mov	sl, r3
 800187e:	46b9      	mov	r9, r7
 8001880:	0d40      	lsrs	r0, r0, #21
 8001882:	0ff6      	lsrs	r6, r6, #31
 8001884:	4311      	orrs	r1, r2
 8001886:	42a0      	cmp	r0, r4
 8001888:	d100      	bne.n	800188c <__aeabi_dsub+0x40>
 800188a:	e0b1      	b.n	80019f0 <__aeabi_dsub+0x1a4>
 800188c:	2201      	movs	r2, #1
 800188e:	4056      	eors	r6, r2
 8001890:	46b3      	mov	fp, r6
 8001892:	42b5      	cmp	r5, r6
 8001894:	d100      	bne.n	8001898 <__aeabi_dsub+0x4c>
 8001896:	e088      	b.n	80019aa <__aeabi_dsub+0x15e>
 8001898:	4642      	mov	r2, r8
 800189a:	1a12      	subs	r2, r2, r0
 800189c:	2a00      	cmp	r2, #0
 800189e:	dc00      	bgt.n	80018a2 <__aeabi_dsub+0x56>
 80018a0:	e0ae      	b.n	8001a00 <__aeabi_dsub+0x1b4>
 80018a2:	2800      	cmp	r0, #0
 80018a4:	d100      	bne.n	80018a8 <__aeabi_dsub+0x5c>
 80018a6:	e0c1      	b.n	8001a2c <__aeabi_dsub+0x1e0>
 80018a8:	48be      	ldr	r0, [pc, #760]	; (8001ba4 <__aeabi_dsub+0x358>)
 80018aa:	4580      	cmp	r8, r0
 80018ac:	d100      	bne.n	80018b0 <__aeabi_dsub+0x64>
 80018ae:	e151      	b.n	8001b54 <__aeabi_dsub+0x308>
 80018b0:	2080      	movs	r0, #128	; 0x80
 80018b2:	0400      	lsls	r0, r0, #16
 80018b4:	4301      	orrs	r1, r0
 80018b6:	2a38      	cmp	r2, #56	; 0x38
 80018b8:	dd00      	ble.n	80018bc <__aeabi_dsub+0x70>
 80018ba:	e17b      	b.n	8001bb4 <__aeabi_dsub+0x368>
 80018bc:	2a1f      	cmp	r2, #31
 80018be:	dd00      	ble.n	80018c2 <__aeabi_dsub+0x76>
 80018c0:	e1ee      	b.n	8001ca0 <__aeabi_dsub+0x454>
 80018c2:	2020      	movs	r0, #32
 80018c4:	003e      	movs	r6, r7
 80018c6:	1a80      	subs	r0, r0, r2
 80018c8:	000c      	movs	r4, r1
 80018ca:	40d6      	lsrs	r6, r2
 80018cc:	40d1      	lsrs	r1, r2
 80018ce:	4087      	lsls	r7, r0
 80018d0:	4662      	mov	r2, ip
 80018d2:	4084      	lsls	r4, r0
 80018d4:	1a52      	subs	r2, r2, r1
 80018d6:	1e78      	subs	r0, r7, #1
 80018d8:	4187      	sbcs	r7, r0
 80018da:	4694      	mov	ip, r2
 80018dc:	4334      	orrs	r4, r6
 80018de:	4327      	orrs	r7, r4
 80018e0:	1bdc      	subs	r4, r3, r7
 80018e2:	42a3      	cmp	r3, r4
 80018e4:	419b      	sbcs	r3, r3
 80018e6:	4662      	mov	r2, ip
 80018e8:	425b      	negs	r3, r3
 80018ea:	1ad3      	subs	r3, r2, r3
 80018ec:	4699      	mov	r9, r3
 80018ee:	464b      	mov	r3, r9
 80018f0:	021b      	lsls	r3, r3, #8
 80018f2:	d400      	bmi.n	80018f6 <__aeabi_dsub+0xaa>
 80018f4:	e118      	b.n	8001b28 <__aeabi_dsub+0x2dc>
 80018f6:	464b      	mov	r3, r9
 80018f8:	0258      	lsls	r0, r3, #9
 80018fa:	0a43      	lsrs	r3, r0, #9
 80018fc:	4699      	mov	r9, r3
 80018fe:	464b      	mov	r3, r9
 8001900:	2b00      	cmp	r3, #0
 8001902:	d100      	bne.n	8001906 <__aeabi_dsub+0xba>
 8001904:	e137      	b.n	8001b76 <__aeabi_dsub+0x32a>
 8001906:	4648      	mov	r0, r9
 8001908:	f000 fb8e 	bl	8002028 <__clzsi2>
 800190c:	0001      	movs	r1, r0
 800190e:	3908      	subs	r1, #8
 8001910:	2320      	movs	r3, #32
 8001912:	0022      	movs	r2, r4
 8001914:	4648      	mov	r0, r9
 8001916:	1a5b      	subs	r3, r3, r1
 8001918:	40da      	lsrs	r2, r3
 800191a:	4088      	lsls	r0, r1
 800191c:	408c      	lsls	r4, r1
 800191e:	4643      	mov	r3, r8
 8001920:	4310      	orrs	r0, r2
 8001922:	4588      	cmp	r8, r1
 8001924:	dd00      	ble.n	8001928 <__aeabi_dsub+0xdc>
 8001926:	e136      	b.n	8001b96 <__aeabi_dsub+0x34a>
 8001928:	1ac9      	subs	r1, r1, r3
 800192a:	1c4b      	adds	r3, r1, #1
 800192c:	2b1f      	cmp	r3, #31
 800192e:	dd00      	ble.n	8001932 <__aeabi_dsub+0xe6>
 8001930:	e0ea      	b.n	8001b08 <__aeabi_dsub+0x2bc>
 8001932:	2220      	movs	r2, #32
 8001934:	0026      	movs	r6, r4
 8001936:	1ad2      	subs	r2, r2, r3
 8001938:	0001      	movs	r1, r0
 800193a:	4094      	lsls	r4, r2
 800193c:	40de      	lsrs	r6, r3
 800193e:	40d8      	lsrs	r0, r3
 8001940:	2300      	movs	r3, #0
 8001942:	4091      	lsls	r1, r2
 8001944:	1e62      	subs	r2, r4, #1
 8001946:	4194      	sbcs	r4, r2
 8001948:	4681      	mov	r9, r0
 800194a:	4698      	mov	r8, r3
 800194c:	4331      	orrs	r1, r6
 800194e:	430c      	orrs	r4, r1
 8001950:	0763      	lsls	r3, r4, #29
 8001952:	d009      	beq.n	8001968 <__aeabi_dsub+0x11c>
 8001954:	230f      	movs	r3, #15
 8001956:	4023      	ands	r3, r4
 8001958:	2b04      	cmp	r3, #4
 800195a:	d005      	beq.n	8001968 <__aeabi_dsub+0x11c>
 800195c:	1d23      	adds	r3, r4, #4
 800195e:	42a3      	cmp	r3, r4
 8001960:	41a4      	sbcs	r4, r4
 8001962:	4264      	negs	r4, r4
 8001964:	44a1      	add	r9, r4
 8001966:	001c      	movs	r4, r3
 8001968:	464b      	mov	r3, r9
 800196a:	021b      	lsls	r3, r3, #8
 800196c:	d400      	bmi.n	8001970 <__aeabi_dsub+0x124>
 800196e:	e0de      	b.n	8001b2e <__aeabi_dsub+0x2e2>
 8001970:	4641      	mov	r1, r8
 8001972:	4b8c      	ldr	r3, [pc, #560]	; (8001ba4 <__aeabi_dsub+0x358>)
 8001974:	3101      	adds	r1, #1
 8001976:	4299      	cmp	r1, r3
 8001978:	d100      	bne.n	800197c <__aeabi_dsub+0x130>
 800197a:	e0e7      	b.n	8001b4c <__aeabi_dsub+0x300>
 800197c:	464b      	mov	r3, r9
 800197e:	488a      	ldr	r0, [pc, #552]	; (8001ba8 <__aeabi_dsub+0x35c>)
 8001980:	08e4      	lsrs	r4, r4, #3
 8001982:	4003      	ands	r3, r0
 8001984:	0018      	movs	r0, r3
 8001986:	0549      	lsls	r1, r1, #21
 8001988:	075b      	lsls	r3, r3, #29
 800198a:	0240      	lsls	r0, r0, #9
 800198c:	4323      	orrs	r3, r4
 800198e:	0d4a      	lsrs	r2, r1, #21
 8001990:	0b04      	lsrs	r4, r0, #12
 8001992:	0512      	lsls	r2, r2, #20
 8001994:	07ed      	lsls	r5, r5, #31
 8001996:	4322      	orrs	r2, r4
 8001998:	432a      	orrs	r2, r5
 800199a:	0018      	movs	r0, r3
 800199c:	0011      	movs	r1, r2
 800199e:	bcf0      	pop	{r4, r5, r6, r7}
 80019a0:	46bb      	mov	fp, r7
 80019a2:	46b2      	mov	sl, r6
 80019a4:	46a9      	mov	r9, r5
 80019a6:	46a0      	mov	r8, r4
 80019a8:	bdf8      	pop	{r3, r4, r5, r6, r7, pc}
 80019aa:	4642      	mov	r2, r8
 80019ac:	1a12      	subs	r2, r2, r0
 80019ae:	2a00      	cmp	r2, #0
 80019b0:	dd52      	ble.n	8001a58 <__aeabi_dsub+0x20c>
 80019b2:	2800      	cmp	r0, #0
 80019b4:	d100      	bne.n	80019b8 <__aeabi_dsub+0x16c>
 80019b6:	e09c      	b.n	8001af2 <__aeabi_dsub+0x2a6>
 80019b8:	45a0      	cmp	r8, r4
 80019ba:	d100      	bne.n	80019be <__aeabi_dsub+0x172>
 80019bc:	e0ca      	b.n	8001b54 <__aeabi_dsub+0x308>
 80019be:	2080      	movs	r0, #128	; 0x80
 80019c0:	0400      	lsls	r0, r0, #16
 80019c2:	4301      	orrs	r1, r0
 80019c4:	2a38      	cmp	r2, #56	; 0x38
 80019c6:	dd00      	ble.n	80019ca <__aeabi_dsub+0x17e>
 80019c8:	e149      	b.n	8001c5e <__aeabi_dsub+0x412>
 80019ca:	2a1f      	cmp	r2, #31
 80019cc:	dc00      	bgt.n	80019d0 <__aeabi_dsub+0x184>
 80019ce:	e197      	b.n	8001d00 <__aeabi_dsub+0x4b4>
 80019d0:	0010      	movs	r0, r2
 80019d2:	000e      	movs	r6, r1
 80019d4:	3820      	subs	r0, #32
 80019d6:	40c6      	lsrs	r6, r0
 80019d8:	2a20      	cmp	r2, #32
 80019da:	d004      	beq.n	80019e6 <__aeabi_dsub+0x19a>
 80019dc:	2040      	movs	r0, #64	; 0x40
 80019de:	1a82      	subs	r2, r0, r2
 80019e0:	4091      	lsls	r1, r2
 80019e2:	430f      	orrs	r7, r1
 80019e4:	46b9      	mov	r9, r7
 80019e6:	464c      	mov	r4, r9
 80019e8:	1e62      	subs	r2, r4, #1
 80019ea:	4194      	sbcs	r4, r2
 80019ec:	4334      	orrs	r4, r6
 80019ee:	e13a      	b.n	8001c66 <__aeabi_dsub+0x41a>
 80019f0:	000a      	movs	r2, r1
 80019f2:	433a      	orrs	r2, r7
 80019f4:	d028      	beq.n	8001a48 <__aeabi_dsub+0x1fc>
 80019f6:	46b3      	mov	fp, r6
 80019f8:	42b5      	cmp	r5, r6
 80019fa:	d02b      	beq.n	8001a54 <__aeabi_dsub+0x208>
 80019fc:	4a6b      	ldr	r2, [pc, #428]	; (8001bac <__aeabi_dsub+0x360>)
 80019fe:	4442      	add	r2, r8
 8001a00:	2a00      	cmp	r2, #0
 8001a02:	d05d      	beq.n	8001ac0 <__aeabi_dsub+0x274>
 8001a04:	4642      	mov	r2, r8
 8001a06:	4644      	mov	r4, r8
 8001a08:	1a82      	subs	r2, r0, r2
 8001a0a:	2c00      	cmp	r4, #0
 8001a0c:	d000      	beq.n	8001a10 <__aeabi_dsub+0x1c4>
 8001a0e:	e0f5      	b.n	8001bfc <__aeabi_dsub+0x3b0>
 8001a10:	4665      	mov	r5, ip
 8001a12:	431d      	orrs	r5, r3
 8001a14:	d100      	bne.n	8001a18 <__aeabi_dsub+0x1cc>
 8001a16:	e19c      	b.n	8001d52 <__aeabi_dsub+0x506>
 8001a18:	1e55      	subs	r5, r2, #1
 8001a1a:	2a01      	cmp	r2, #1
 8001a1c:	d100      	bne.n	8001a20 <__aeabi_dsub+0x1d4>
 8001a1e:	e1fb      	b.n	8001e18 <__aeabi_dsub+0x5cc>
 8001a20:	4c60      	ldr	r4, [pc, #384]	; (8001ba4 <__aeabi_dsub+0x358>)
 8001a22:	42a2      	cmp	r2, r4
 8001a24:	d100      	bne.n	8001a28 <__aeabi_dsub+0x1dc>
 8001a26:	e1bd      	b.n	8001da4 <__aeabi_dsub+0x558>
 8001a28:	002a      	movs	r2, r5
 8001a2a:	e0f0      	b.n	8001c0e <__aeabi_dsub+0x3c2>
 8001a2c:	0008      	movs	r0, r1
 8001a2e:	4338      	orrs	r0, r7
 8001a30:	d100      	bne.n	8001a34 <__aeabi_dsub+0x1e8>
 8001a32:	e0c3      	b.n	8001bbc <__aeabi_dsub+0x370>
 8001a34:	1e50      	subs	r0, r2, #1
 8001a36:	2a01      	cmp	r2, #1
 8001a38:	d100      	bne.n	8001a3c <__aeabi_dsub+0x1f0>
 8001a3a:	e1a8      	b.n	8001d8e <__aeabi_dsub+0x542>
 8001a3c:	4c59      	ldr	r4, [pc, #356]	; (8001ba4 <__aeabi_dsub+0x358>)
 8001a3e:	42a2      	cmp	r2, r4
 8001a40:	d100      	bne.n	8001a44 <__aeabi_dsub+0x1f8>
 8001a42:	e087      	b.n	8001b54 <__aeabi_dsub+0x308>
 8001a44:	0002      	movs	r2, r0
 8001a46:	e736      	b.n	80018b6 <__aeabi_dsub+0x6a>
 8001a48:	2201      	movs	r2, #1
 8001a4a:	4056      	eors	r6, r2
 8001a4c:	46b3      	mov	fp, r6
 8001a4e:	42b5      	cmp	r5, r6
 8001a50:	d000      	beq.n	8001a54 <__aeabi_dsub+0x208>
 8001a52:	e721      	b.n	8001898 <__aeabi_dsub+0x4c>
 8001a54:	4a55      	ldr	r2, [pc, #340]	; (8001bac <__aeabi_dsub+0x360>)
 8001a56:	4442      	add	r2, r8
 8001a58:	2a00      	cmp	r2, #0
 8001a5a:	d100      	bne.n	8001a5e <__aeabi_dsub+0x212>
 8001a5c:	e0b5      	b.n	8001bca <__aeabi_dsub+0x37e>
 8001a5e:	4642      	mov	r2, r8
 8001a60:	4644      	mov	r4, r8
 8001a62:	1a82      	subs	r2, r0, r2
 8001a64:	2c00      	cmp	r4, #0
 8001a66:	d100      	bne.n	8001a6a <__aeabi_dsub+0x21e>
 8001a68:	e138      	b.n	8001cdc <__aeabi_dsub+0x490>
 8001a6a:	4e4e      	ldr	r6, [pc, #312]	; (8001ba4 <__aeabi_dsub+0x358>)
 8001a6c:	42b0      	cmp	r0, r6
 8001a6e:	d100      	bne.n	8001a72 <__aeabi_dsub+0x226>
 8001a70:	e1de      	b.n	8001e30 <__aeabi_dsub+0x5e4>
 8001a72:	2680      	movs	r6, #128	; 0x80
 8001a74:	4664      	mov	r4, ip
 8001a76:	0436      	lsls	r6, r6, #16
 8001a78:	4334      	orrs	r4, r6
 8001a7a:	46a4      	mov	ip, r4
 8001a7c:	2a38      	cmp	r2, #56	; 0x38
 8001a7e:	dd00      	ble.n	8001a82 <__aeabi_dsub+0x236>
 8001a80:	e196      	b.n	8001db0 <__aeabi_dsub+0x564>
 8001a82:	2a1f      	cmp	r2, #31
 8001a84:	dd00      	ble.n	8001a88 <__aeabi_dsub+0x23c>
 8001a86:	e224      	b.n	8001ed2 <__aeabi_dsub+0x686>
 8001a88:	2620      	movs	r6, #32
 8001a8a:	1ab4      	subs	r4, r6, r2
 8001a8c:	46a2      	mov	sl, r4
 8001a8e:	4664      	mov	r4, ip
 8001a90:	4656      	mov	r6, sl
 8001a92:	40b4      	lsls	r4, r6
 8001a94:	46a1      	mov	r9, r4
 8001a96:	001c      	movs	r4, r3
 8001a98:	464e      	mov	r6, r9
 8001a9a:	40d4      	lsrs	r4, r2
 8001a9c:	4326      	orrs	r6, r4
 8001a9e:	0034      	movs	r4, r6
 8001aa0:	4656      	mov	r6, sl
 8001aa2:	40b3      	lsls	r3, r6
 8001aa4:	1e5e      	subs	r6, r3, #1
 8001aa6:	41b3      	sbcs	r3, r6
 8001aa8:	431c      	orrs	r4, r3
 8001aaa:	4663      	mov	r3, ip
 8001aac:	40d3      	lsrs	r3, r2
 8001aae:	18c9      	adds	r1, r1, r3
 8001ab0:	19e4      	adds	r4, r4, r7
 8001ab2:	42bc      	cmp	r4, r7
 8001ab4:	41bf      	sbcs	r7, r7
 8001ab6:	427f      	negs	r7, r7
 8001ab8:	46b9      	mov	r9, r7
 8001aba:	4680      	mov	r8, r0
 8001abc:	4489      	add	r9, r1
 8001abe:	e0d8      	b.n	8001c72 <__aeabi_dsub+0x426>
 8001ac0:	4640      	mov	r0, r8
 8001ac2:	4c3b      	ldr	r4, [pc, #236]	; (8001bb0 <__aeabi_dsub+0x364>)
 8001ac4:	3001      	adds	r0, #1
 8001ac6:	4220      	tst	r0, r4
 8001ac8:	d000      	beq.n	8001acc <__aeabi_dsub+0x280>
 8001aca:	e0b4      	b.n	8001c36 <__aeabi_dsub+0x3ea>
 8001acc:	4640      	mov	r0, r8
 8001ace:	2800      	cmp	r0, #0
 8001ad0:	d000      	beq.n	8001ad4 <__aeabi_dsub+0x288>
 8001ad2:	e144      	b.n	8001d5e <__aeabi_dsub+0x512>
 8001ad4:	4660      	mov	r0, ip
 8001ad6:	4318      	orrs	r0, r3
 8001ad8:	d100      	bne.n	8001adc <__aeabi_dsub+0x290>
 8001ada:	e190      	b.n	8001dfe <__aeabi_dsub+0x5b2>
 8001adc:	0008      	movs	r0, r1
 8001ade:	4338      	orrs	r0, r7
 8001ae0:	d000      	beq.n	8001ae4 <__aeabi_dsub+0x298>
 8001ae2:	e1aa      	b.n	8001e3a <__aeabi_dsub+0x5ee>
 8001ae4:	4661      	mov	r1, ip
 8001ae6:	08db      	lsrs	r3, r3, #3
 8001ae8:	0749      	lsls	r1, r1, #29
 8001aea:	430b      	orrs	r3, r1
 8001aec:	4661      	mov	r1, ip
 8001aee:	08cc      	lsrs	r4, r1, #3
 8001af0:	e027      	b.n	8001b42 <__aeabi_dsub+0x2f6>
 8001af2:	0008      	movs	r0, r1
 8001af4:	4338      	orrs	r0, r7
 8001af6:	d061      	beq.n	8001bbc <__aeabi_dsub+0x370>
 8001af8:	1e50      	subs	r0, r2, #1
 8001afa:	2a01      	cmp	r2, #1
 8001afc:	d100      	bne.n	8001b00 <__aeabi_dsub+0x2b4>
 8001afe:	e139      	b.n	8001d74 <__aeabi_dsub+0x528>
 8001b00:	42a2      	cmp	r2, r4
 8001b02:	d027      	beq.n	8001b54 <__aeabi_dsub+0x308>
 8001b04:	0002      	movs	r2, r0
 8001b06:	e75d      	b.n	80019c4 <__aeabi_dsub+0x178>
 8001b08:	0002      	movs	r2, r0
 8001b0a:	391f      	subs	r1, #31
 8001b0c:	40ca      	lsrs	r2, r1
 8001b0e:	0011      	movs	r1, r2
 8001b10:	2b20      	cmp	r3, #32
 8001b12:	d003      	beq.n	8001b1c <__aeabi_dsub+0x2d0>
 8001b14:	2240      	movs	r2, #64	; 0x40
 8001b16:	1ad3      	subs	r3, r2, r3
 8001b18:	4098      	lsls	r0, r3
 8001b1a:	4304      	orrs	r4, r0
 8001b1c:	1e63      	subs	r3, r4, #1
 8001b1e:	419c      	sbcs	r4, r3
 8001b20:	2300      	movs	r3, #0
 8001b22:	4699      	mov	r9, r3
 8001b24:	4698      	mov	r8, r3
 8001b26:	430c      	orrs	r4, r1
 8001b28:	0763      	lsls	r3, r4, #29
 8001b2a:	d000      	beq.n	8001b2e <__aeabi_dsub+0x2e2>
 8001b2c:	e712      	b.n	8001954 <__aeabi_dsub+0x108>
 8001b2e:	464b      	mov	r3, r9
 8001b30:	464a      	mov	r2, r9
 8001b32:	08e4      	lsrs	r4, r4, #3
 8001b34:	075b      	lsls	r3, r3, #29
 8001b36:	4323      	orrs	r3, r4
 8001b38:	08d4      	lsrs	r4, r2, #3
 8001b3a:	4642      	mov	r2, r8
 8001b3c:	4919      	ldr	r1, [pc, #100]	; (8001ba4 <__aeabi_dsub+0x358>)
 8001b3e:	428a      	cmp	r2, r1
 8001b40:	d00e      	beq.n	8001b60 <__aeabi_dsub+0x314>
 8001b42:	0324      	lsls	r4, r4, #12
 8001b44:	0552      	lsls	r2, r2, #21
 8001b46:	0b24      	lsrs	r4, r4, #12
 8001b48:	0d52      	lsrs	r2, r2, #21
 8001b4a:	e722      	b.n	8001992 <__aeabi_dsub+0x146>
 8001b4c:	000a      	movs	r2, r1
 8001b4e:	2400      	movs	r4, #0
 8001b50:	2300      	movs	r3, #0
 8001b52:	e71e      	b.n	8001992 <__aeabi_dsub+0x146>
 8001b54:	08db      	lsrs	r3, r3, #3
 8001b56:	4662      	mov	r2, ip
 8001b58:	0752      	lsls	r2, r2, #29
 8001b5a:	4313      	orrs	r3, r2
 8001b5c:	4662      	mov	r2, ip
 8001b5e:	08d4      	lsrs	r4, r2, #3
 8001b60:	001a      	movs	r2, r3
 8001b62:	4322      	orrs	r2, r4
 8001b64:	d100      	bne.n	8001b68 <__aeabi_dsub+0x31c>
 8001b66:	e1fc      	b.n	8001f62 <__aeabi_dsub+0x716>
 8001b68:	2280      	movs	r2, #128	; 0x80
 8001b6a:	0312      	lsls	r2, r2, #12
 8001b6c:	4314      	orrs	r4, r2
 8001b6e:	0324      	lsls	r4, r4, #12
 8001b70:	4a0c      	ldr	r2, [pc, #48]	; (8001ba4 <__aeabi_dsub+0x358>)
 8001b72:	0b24      	lsrs	r4, r4, #12
 8001b74:	e70d      	b.n	8001992 <__aeabi_dsub+0x146>
 8001b76:	0020      	movs	r0, r4
 8001b78:	f000 fa56 	bl	8002028 <__clzsi2>
 8001b7c:	0001      	movs	r1, r0
 8001b7e:	3118      	adds	r1, #24
 8001b80:	291f      	cmp	r1, #31
 8001b82:	dc00      	bgt.n	8001b86 <__aeabi_dsub+0x33a>
 8001b84:	e6c4      	b.n	8001910 <__aeabi_dsub+0xc4>
 8001b86:	3808      	subs	r0, #8
 8001b88:	4084      	lsls	r4, r0
 8001b8a:	4643      	mov	r3, r8
 8001b8c:	0020      	movs	r0, r4
 8001b8e:	2400      	movs	r4, #0
 8001b90:	4588      	cmp	r8, r1
 8001b92:	dc00      	bgt.n	8001b96 <__aeabi_dsub+0x34a>
 8001b94:	e6c8      	b.n	8001928 <__aeabi_dsub+0xdc>
 8001b96:	4a04      	ldr	r2, [pc, #16]	; (8001ba8 <__aeabi_dsub+0x35c>)
 8001b98:	1a5b      	subs	r3, r3, r1
 8001b9a:	4010      	ands	r0, r2
 8001b9c:	4698      	mov	r8, r3
 8001b9e:	4681      	mov	r9, r0
 8001ba0:	e6d6      	b.n	8001950 <__aeabi_dsub+0x104>
 8001ba2:	46c0      	nop			; (mov r8, r8)
 8001ba4:	000007ff 	.word	0x000007ff
 8001ba8:	ff7fffff 	.word	0xff7fffff
 8001bac:	fffff801 	.word	0xfffff801
 8001bb0:	000007fe 	.word	0x000007fe
 8001bb4:	430f      	orrs	r7, r1
 8001bb6:	1e7a      	subs	r2, r7, #1
 8001bb8:	4197      	sbcs	r7, r2
 8001bba:	e691      	b.n	80018e0 <__aeabi_dsub+0x94>
 8001bbc:	4661      	mov	r1, ip
 8001bbe:	08db      	lsrs	r3, r3, #3
 8001bc0:	0749      	lsls	r1, r1, #29
 8001bc2:	430b      	orrs	r3, r1
 8001bc4:	4661      	mov	r1, ip
 8001bc6:	08cc      	lsrs	r4, r1, #3
 8001bc8:	e7b8      	b.n	8001b3c <__aeabi_dsub+0x2f0>
 8001bca:	4640      	mov	r0, r8
 8001bcc:	4cd3      	ldr	r4, [pc, #844]	; (8001f1c <__aeabi_dsub+0x6d0>)
 8001bce:	3001      	adds	r0, #1
 8001bd0:	4220      	tst	r0, r4
 8001bd2:	d000      	beq.n	8001bd6 <__aeabi_dsub+0x38a>
 8001bd4:	e0a2      	b.n	8001d1c <__aeabi_dsub+0x4d0>
 8001bd6:	4640      	mov	r0, r8
 8001bd8:	2800      	cmp	r0, #0
 8001bda:	d000      	beq.n	8001bde <__aeabi_dsub+0x392>
 8001bdc:	e101      	b.n	8001de2 <__aeabi_dsub+0x596>
 8001bde:	4660      	mov	r0, ip
 8001be0:	4318      	orrs	r0, r3
 8001be2:	d100      	bne.n	8001be6 <__aeabi_dsub+0x39a>
 8001be4:	e15e      	b.n	8001ea4 <__aeabi_dsub+0x658>
 8001be6:	0008      	movs	r0, r1
 8001be8:	4338      	orrs	r0, r7
 8001bea:	d000      	beq.n	8001bee <__aeabi_dsub+0x3a2>
 8001bec:	e15f      	b.n	8001eae <__aeabi_dsub+0x662>
 8001bee:	4661      	mov	r1, ip
 8001bf0:	08db      	lsrs	r3, r3, #3
 8001bf2:	0749      	lsls	r1, r1, #29
 8001bf4:	430b      	orrs	r3, r1
 8001bf6:	4661      	mov	r1, ip
 8001bf8:	08cc      	lsrs	r4, r1, #3
 8001bfa:	e7a2      	b.n	8001b42 <__aeabi_dsub+0x2f6>
 8001bfc:	4dc8      	ldr	r5, [pc, #800]	; (8001f20 <__aeabi_dsub+0x6d4>)
 8001bfe:	42a8      	cmp	r0, r5
 8001c00:	d100      	bne.n	8001c04 <__aeabi_dsub+0x3b8>
 8001c02:	e0cf      	b.n	8001da4 <__aeabi_dsub+0x558>
 8001c04:	2580      	movs	r5, #128	; 0x80
 8001c06:	4664      	mov	r4, ip
 8001c08:	042d      	lsls	r5, r5, #16
 8001c0a:	432c      	orrs	r4, r5
 8001c0c:	46a4      	mov	ip, r4
 8001c0e:	2a38      	cmp	r2, #56	; 0x38
 8001c10:	dc56      	bgt.n	8001cc0 <__aeabi_dsub+0x474>
 8001c12:	2a1f      	cmp	r2, #31
 8001c14:	dd00      	ble.n	8001c18 <__aeabi_dsub+0x3cc>
 8001c16:	e0d1      	b.n	8001dbc <__aeabi_dsub+0x570>
 8001c18:	2520      	movs	r5, #32
 8001c1a:	001e      	movs	r6, r3
 8001c1c:	1aad      	subs	r5, r5, r2
 8001c1e:	4664      	mov	r4, ip
 8001c20:	40ab      	lsls	r3, r5
 8001c22:	40ac      	lsls	r4, r5
 8001c24:	40d6      	lsrs	r6, r2
 8001c26:	1e5d      	subs	r5, r3, #1
 8001c28:	41ab      	sbcs	r3, r5
 8001c2a:	4334      	orrs	r4, r6
 8001c2c:	4323      	orrs	r3, r4
 8001c2e:	4664      	mov	r4, ip
 8001c30:	40d4      	lsrs	r4, r2
 8001c32:	1b09      	subs	r1, r1, r4
 8001c34:	e049      	b.n	8001cca <__aeabi_dsub+0x47e>
 8001c36:	4660      	mov	r0, ip
 8001c38:	1bdc      	subs	r4, r3, r7
 8001c3a:	1a46      	subs	r6, r0, r1
 8001c3c:	42a3      	cmp	r3, r4
 8001c3e:	4180      	sbcs	r0, r0
 8001c40:	4240      	negs	r0, r0
 8001c42:	4681      	mov	r9, r0
 8001c44:	0030      	movs	r0, r6
 8001c46:	464e      	mov	r6, r9
 8001c48:	1b80      	subs	r0, r0, r6
 8001c4a:	4681      	mov	r9, r0
 8001c4c:	0200      	lsls	r0, r0, #8
 8001c4e:	d476      	bmi.n	8001d3e <__aeabi_dsub+0x4f2>
 8001c50:	464b      	mov	r3, r9
 8001c52:	4323      	orrs	r3, r4
 8001c54:	d000      	beq.n	8001c58 <__aeabi_dsub+0x40c>
 8001c56:	e652      	b.n	80018fe <__aeabi_dsub+0xb2>
 8001c58:	2400      	movs	r4, #0
 8001c5a:	2500      	movs	r5, #0
 8001c5c:	e771      	b.n	8001b42 <__aeabi_dsub+0x2f6>
 8001c5e:	4339      	orrs	r1, r7
 8001c60:	000c      	movs	r4, r1
 8001c62:	1e62      	subs	r2, r4, #1
 8001c64:	4194      	sbcs	r4, r2
 8001c66:	18e4      	adds	r4, r4, r3
 8001c68:	429c      	cmp	r4, r3
 8001c6a:	419b      	sbcs	r3, r3
 8001c6c:	425b      	negs	r3, r3
 8001c6e:	4463      	add	r3, ip
 8001c70:	4699      	mov	r9, r3
 8001c72:	464b      	mov	r3, r9
 8001c74:	021b      	lsls	r3, r3, #8
 8001c76:	d400      	bmi.n	8001c7a <__aeabi_dsub+0x42e>
 8001c78:	e756      	b.n	8001b28 <__aeabi_dsub+0x2dc>
 8001c7a:	2301      	movs	r3, #1
 8001c7c:	469c      	mov	ip, r3
 8001c7e:	4ba8      	ldr	r3, [pc, #672]	; (8001f20 <__aeabi_dsub+0x6d4>)
 8001c80:	44e0      	add	r8, ip
 8001c82:	4598      	cmp	r8, r3
 8001c84:	d038      	beq.n	8001cf8 <__aeabi_dsub+0x4ac>
 8001c86:	464b      	mov	r3, r9
 8001c88:	48a6      	ldr	r0, [pc, #664]	; (8001f24 <__aeabi_dsub+0x6d8>)
 8001c8a:	2201      	movs	r2, #1
 8001c8c:	4003      	ands	r3, r0
 8001c8e:	0018      	movs	r0, r3
 8001c90:	0863      	lsrs	r3, r4, #1
 8001c92:	4014      	ands	r4, r2
 8001c94:	431c      	orrs	r4, r3
 8001c96:	07c3      	lsls	r3, r0, #31
 8001c98:	431c      	orrs	r4, r3
 8001c9a:	0843      	lsrs	r3, r0, #1
 8001c9c:	4699      	mov	r9, r3
 8001c9e:	e657      	b.n	8001950 <__aeabi_dsub+0x104>
 8001ca0:	0010      	movs	r0, r2
 8001ca2:	000e      	movs	r6, r1
 8001ca4:	3820      	subs	r0, #32
 8001ca6:	40c6      	lsrs	r6, r0
 8001ca8:	2a20      	cmp	r2, #32
 8001caa:	d004      	beq.n	8001cb6 <__aeabi_dsub+0x46a>
 8001cac:	2040      	movs	r0, #64	; 0x40
 8001cae:	1a82      	subs	r2, r0, r2
 8001cb0:	4091      	lsls	r1, r2
 8001cb2:	430f      	orrs	r7, r1
 8001cb4:	46b9      	mov	r9, r7
 8001cb6:	464f      	mov	r7, r9
 8001cb8:	1e7a      	subs	r2, r7, #1
 8001cba:	4197      	sbcs	r7, r2
 8001cbc:	4337      	orrs	r7, r6
 8001cbe:	e60f      	b.n	80018e0 <__aeabi_dsub+0x94>
 8001cc0:	4662      	mov	r2, ip
 8001cc2:	431a      	orrs	r2, r3
 8001cc4:	0013      	movs	r3, r2
 8001cc6:	1e5a      	subs	r2, r3, #1
 8001cc8:	4193      	sbcs	r3, r2
 8001cca:	1afc      	subs	r4, r7, r3
 8001ccc:	42a7      	cmp	r7, r4
 8001cce:	41bf      	sbcs	r7, r7
 8001cd0:	427f      	negs	r7, r7
 8001cd2:	1bcb      	subs	r3, r1, r7
 8001cd4:	4699      	mov	r9, r3
 8001cd6:	465d      	mov	r5, fp
 8001cd8:	4680      	mov	r8, r0
 8001cda:	e608      	b.n	80018ee <__aeabi_dsub+0xa2>
 8001cdc:	4666      	mov	r6, ip
 8001cde:	431e      	orrs	r6, r3
 8001ce0:	d100      	bne.n	8001ce4 <__aeabi_dsub+0x498>
 8001ce2:	e0be      	b.n	8001e62 <__aeabi_dsub+0x616>
 8001ce4:	1e56      	subs	r6, r2, #1
 8001ce6:	2a01      	cmp	r2, #1
 8001ce8:	d100      	bne.n	8001cec <__aeabi_dsub+0x4a0>
 8001cea:	e109      	b.n	8001f00 <__aeabi_dsub+0x6b4>
 8001cec:	4c8c      	ldr	r4, [pc, #560]	; (8001f20 <__aeabi_dsub+0x6d4>)
 8001cee:	42a2      	cmp	r2, r4
 8001cf0:	d100      	bne.n	8001cf4 <__aeabi_dsub+0x4a8>
 8001cf2:	e119      	b.n	8001f28 <__aeabi_dsub+0x6dc>
 8001cf4:	0032      	movs	r2, r6
 8001cf6:	e6c1      	b.n	8001a7c <__aeabi_dsub+0x230>
 8001cf8:	4642      	mov	r2, r8
 8001cfa:	2400      	movs	r4, #0
 8001cfc:	2300      	movs	r3, #0
 8001cfe:	e648      	b.n	8001992 <__aeabi_dsub+0x146>
 8001d00:	2020      	movs	r0, #32
 8001d02:	000c      	movs	r4, r1
 8001d04:	1a80      	subs	r0, r0, r2
 8001d06:	003e      	movs	r6, r7
 8001d08:	4087      	lsls	r7, r0
 8001d0a:	4084      	lsls	r4, r0
 8001d0c:	40d6      	lsrs	r6, r2
 8001d0e:	1e78      	subs	r0, r7, #1
 8001d10:	4187      	sbcs	r7, r0
 8001d12:	40d1      	lsrs	r1, r2
 8001d14:	4334      	orrs	r4, r6
 8001d16:	433c      	orrs	r4, r7
 8001d18:	448c      	add	ip, r1
 8001d1a:	e7a4      	b.n	8001c66 <__aeabi_dsub+0x41a>
 8001d1c:	4a80      	ldr	r2, [pc, #512]	; (8001f20 <__aeabi_dsub+0x6d4>)
 8001d1e:	4290      	cmp	r0, r2
 8001d20:	d100      	bne.n	8001d24 <__aeabi_dsub+0x4d8>
 8001d22:	e0e9      	b.n	8001ef8 <__aeabi_dsub+0x6ac>
 8001d24:	19df      	adds	r7, r3, r7
 8001d26:	429f      	cmp	r7, r3
 8001d28:	419b      	sbcs	r3, r3
 8001d2a:	4461      	add	r1, ip
 8001d2c:	425b      	negs	r3, r3
 8001d2e:	18c9      	adds	r1, r1, r3
 8001d30:	07cc      	lsls	r4, r1, #31
 8001d32:	087f      	lsrs	r7, r7, #1
 8001d34:	084b      	lsrs	r3, r1, #1
 8001d36:	4699      	mov	r9, r3
 8001d38:	4680      	mov	r8, r0
 8001d3a:	433c      	orrs	r4, r7
 8001d3c:	e6f4      	b.n	8001b28 <__aeabi_dsub+0x2dc>
 8001d3e:	1afc      	subs	r4, r7, r3
 8001d40:	42a7      	cmp	r7, r4
 8001d42:	41bf      	sbcs	r7, r7
 8001d44:	4663      	mov	r3, ip
 8001d46:	427f      	negs	r7, r7
 8001d48:	1ac9      	subs	r1, r1, r3
 8001d4a:	1bcb      	subs	r3, r1, r7
 8001d4c:	4699      	mov	r9, r3
 8001d4e:	465d      	mov	r5, fp
 8001d50:	e5d5      	b.n	80018fe <__aeabi_dsub+0xb2>
 8001d52:	08ff      	lsrs	r7, r7, #3
 8001d54:	074b      	lsls	r3, r1, #29
 8001d56:	465d      	mov	r5, fp
 8001d58:	433b      	orrs	r3, r7
 8001d5a:	08cc      	lsrs	r4, r1, #3
 8001d5c:	e6ee      	b.n	8001b3c <__aeabi_dsub+0x2f0>
 8001d5e:	4662      	mov	r2, ip
 8001d60:	431a      	orrs	r2, r3
 8001d62:	d000      	beq.n	8001d66 <__aeabi_dsub+0x51a>
 8001d64:	e082      	b.n	8001e6c <__aeabi_dsub+0x620>
 8001d66:	000b      	movs	r3, r1
 8001d68:	433b      	orrs	r3, r7
 8001d6a:	d11b      	bne.n	8001da4 <__aeabi_dsub+0x558>
 8001d6c:	2480      	movs	r4, #128	; 0x80
 8001d6e:	2500      	movs	r5, #0
 8001d70:	0324      	lsls	r4, r4, #12
 8001d72:	e6f9      	b.n	8001b68 <__aeabi_dsub+0x31c>
 8001d74:	19dc      	adds	r4, r3, r7
 8001d76:	429c      	cmp	r4, r3
 8001d78:	419b      	sbcs	r3, r3
 8001d7a:	4461      	add	r1, ip
 8001d7c:	4689      	mov	r9, r1
 8001d7e:	425b      	negs	r3, r3
 8001d80:	4499      	add	r9, r3
 8001d82:	464b      	mov	r3, r9
 8001d84:	021b      	lsls	r3, r3, #8
 8001d86:	d444      	bmi.n	8001e12 <__aeabi_dsub+0x5c6>
 8001d88:	2301      	movs	r3, #1
 8001d8a:	4698      	mov	r8, r3
 8001d8c:	e6cc      	b.n	8001b28 <__aeabi_dsub+0x2dc>
 8001d8e:	1bdc      	subs	r4, r3, r7
 8001d90:	4662      	mov	r2, ip
 8001d92:	42a3      	cmp	r3, r4
 8001d94:	419b      	sbcs	r3, r3
 8001d96:	1a51      	subs	r1, r2, r1
 8001d98:	425b      	negs	r3, r3
 8001d9a:	1acb      	subs	r3, r1, r3
 8001d9c:	4699      	mov	r9, r3
 8001d9e:	2301      	movs	r3, #1
 8001da0:	4698      	mov	r8, r3
 8001da2:	e5a4      	b.n	80018ee <__aeabi_dsub+0xa2>
 8001da4:	08ff      	lsrs	r7, r7, #3
 8001da6:	074b      	lsls	r3, r1, #29
 8001da8:	465d      	mov	r5, fp
 8001daa:	433b      	orrs	r3, r7
 8001dac:	08cc      	lsrs	r4, r1, #3
 8001dae:	e6d7      	b.n	8001b60 <__aeabi_dsub+0x314>
 8001db0:	4662      	mov	r2, ip
 8001db2:	431a      	orrs	r2, r3
 8001db4:	0014      	movs	r4, r2
 8001db6:	1e63      	subs	r3, r4, #1
 8001db8:	419c      	sbcs	r4, r3
 8001dba:	e679      	b.n	8001ab0 <__aeabi_dsub+0x264>
 8001dbc:	0015      	movs	r5, r2
 8001dbe:	4664      	mov	r4, ip
 8001dc0:	3d20      	subs	r5, #32
 8001dc2:	40ec      	lsrs	r4, r5
 8001dc4:	46a0      	mov	r8, r4
 8001dc6:	2a20      	cmp	r2, #32
 8001dc8:	d005      	beq.n	8001dd6 <__aeabi_dsub+0x58a>
 8001dca:	2540      	movs	r5, #64	; 0x40
 8001dcc:	4664      	mov	r4, ip
 8001dce:	1aaa      	subs	r2, r5, r2
 8001dd0:	4094      	lsls	r4, r2
 8001dd2:	4323      	orrs	r3, r4
 8001dd4:	469a      	mov	sl, r3
 8001dd6:	4654      	mov	r4, sl
 8001dd8:	1e63      	subs	r3, r4, #1
 8001dda:	419c      	sbcs	r4, r3
 8001ddc:	4643      	mov	r3, r8
 8001dde:	4323      	orrs	r3, r4
 8001de0:	e773      	b.n	8001cca <__aeabi_dsub+0x47e>
 8001de2:	4662      	mov	r2, ip
 8001de4:	431a      	orrs	r2, r3
 8001de6:	d023      	beq.n	8001e30 <__aeabi_dsub+0x5e4>
 8001de8:	000a      	movs	r2, r1
 8001dea:	433a      	orrs	r2, r7
 8001dec:	d000      	beq.n	8001df0 <__aeabi_dsub+0x5a4>
 8001dee:	e0a0      	b.n	8001f32 <__aeabi_dsub+0x6e6>
 8001df0:	4662      	mov	r2, ip
 8001df2:	08db      	lsrs	r3, r3, #3
 8001df4:	0752      	lsls	r2, r2, #29
 8001df6:	4313      	orrs	r3, r2
 8001df8:	4662      	mov	r2, ip
 8001dfa:	08d4      	lsrs	r4, r2, #3
 8001dfc:	e6b0      	b.n	8001b60 <__aeabi_dsub+0x314>
 8001dfe:	000b      	movs	r3, r1
 8001e00:	433b      	orrs	r3, r7
 8001e02:	d100      	bne.n	8001e06 <__aeabi_dsub+0x5ba>
 8001e04:	e728      	b.n	8001c58 <__aeabi_dsub+0x40c>
 8001e06:	08ff      	lsrs	r7, r7, #3
 8001e08:	074b      	lsls	r3, r1, #29
 8001e0a:	465d      	mov	r5, fp
 8001e0c:	433b      	orrs	r3, r7
 8001e0e:	08cc      	lsrs	r4, r1, #3
 8001e10:	e697      	b.n	8001b42 <__aeabi_dsub+0x2f6>
 8001e12:	2302      	movs	r3, #2
 8001e14:	4698      	mov	r8, r3
 8001e16:	e736      	b.n	8001c86 <__aeabi_dsub+0x43a>
 8001e18:	1afc      	subs	r4, r7, r3
 8001e1a:	42a7      	cmp	r7, r4
 8001e1c:	41bf      	sbcs	r7, r7
 8001e1e:	4663      	mov	r3, ip
 8001e20:	427f      	negs	r7, r7
 8001e22:	1ac9      	subs	r1, r1, r3
 8001e24:	1bcb      	subs	r3, r1, r7
 8001e26:	4699      	mov	r9, r3
 8001e28:	2301      	movs	r3, #1
 8001e2a:	465d      	mov	r5, fp
 8001e2c:	4698      	mov	r8, r3
 8001e2e:	e55e      	b.n	80018ee <__aeabi_dsub+0xa2>
 8001e30:	074b      	lsls	r3, r1, #29
 8001e32:	08ff      	lsrs	r7, r7, #3
 8001e34:	433b      	orrs	r3, r7
 8001e36:	08cc      	lsrs	r4, r1, #3
 8001e38:	e692      	b.n	8001b60 <__aeabi_dsub+0x314>
 8001e3a:	1bdc      	subs	r4, r3, r7
 8001e3c:	4660      	mov	r0, ip
 8001e3e:	42a3      	cmp	r3, r4
 8001e40:	41b6      	sbcs	r6, r6
 8001e42:	1a40      	subs	r0, r0, r1
 8001e44:	4276      	negs	r6, r6
 8001e46:	1b80      	subs	r0, r0, r6
 8001e48:	4681      	mov	r9, r0
 8001e4a:	0200      	lsls	r0, r0, #8
 8001e4c:	d560      	bpl.n	8001f10 <__aeabi_dsub+0x6c4>
 8001e4e:	1afc      	subs	r4, r7, r3
 8001e50:	42a7      	cmp	r7, r4
 8001e52:	41bf      	sbcs	r7, r7
 8001e54:	4663      	mov	r3, ip
 8001e56:	427f      	negs	r7, r7
 8001e58:	1ac9      	subs	r1, r1, r3
 8001e5a:	1bcb      	subs	r3, r1, r7
 8001e5c:	4699      	mov	r9, r3
 8001e5e:	465d      	mov	r5, fp
 8001e60:	e576      	b.n	8001950 <__aeabi_dsub+0x104>
 8001e62:	08ff      	lsrs	r7, r7, #3
 8001e64:	074b      	lsls	r3, r1, #29
 8001e66:	433b      	orrs	r3, r7
 8001e68:	08cc      	lsrs	r4, r1, #3
 8001e6a:	e667      	b.n	8001b3c <__aeabi_dsub+0x2f0>
 8001e6c:	000a      	movs	r2, r1
 8001e6e:	08db      	lsrs	r3, r3, #3
 8001e70:	433a      	orrs	r2, r7
 8001e72:	d100      	bne.n	8001e76 <__aeabi_dsub+0x62a>
 8001e74:	e66f      	b.n	8001b56 <__aeabi_dsub+0x30a>
 8001e76:	4662      	mov	r2, ip
 8001e78:	0752      	lsls	r2, r2, #29
 8001e7a:	4313      	orrs	r3, r2
 8001e7c:	4662      	mov	r2, ip
 8001e7e:	08d4      	lsrs	r4, r2, #3
 8001e80:	2280      	movs	r2, #128	; 0x80
 8001e82:	0312      	lsls	r2, r2, #12
 8001e84:	4214      	tst	r4, r2
 8001e86:	d007      	beq.n	8001e98 <__aeabi_dsub+0x64c>
 8001e88:	08c8      	lsrs	r0, r1, #3
 8001e8a:	4210      	tst	r0, r2
 8001e8c:	d104      	bne.n	8001e98 <__aeabi_dsub+0x64c>
 8001e8e:	465d      	mov	r5, fp
 8001e90:	0004      	movs	r4, r0
 8001e92:	08fb      	lsrs	r3, r7, #3
 8001e94:	0749      	lsls	r1, r1, #29
 8001e96:	430b      	orrs	r3, r1
 8001e98:	0f5a      	lsrs	r2, r3, #29
 8001e9a:	00db      	lsls	r3, r3, #3
 8001e9c:	08db      	lsrs	r3, r3, #3
 8001e9e:	0752      	lsls	r2, r2, #29
 8001ea0:	4313      	orrs	r3, r2
 8001ea2:	e65d      	b.n	8001b60 <__aeabi_dsub+0x314>
 8001ea4:	074b      	lsls	r3, r1, #29
 8001ea6:	08ff      	lsrs	r7, r7, #3
 8001ea8:	433b      	orrs	r3, r7
 8001eaa:	08cc      	lsrs	r4, r1, #3
 8001eac:	e649      	b.n	8001b42 <__aeabi_dsub+0x2f6>
 8001eae:	19dc      	adds	r4, r3, r7
 8001eb0:	429c      	cmp	r4, r3
 8001eb2:	419b      	sbcs	r3, r3
 8001eb4:	4461      	add	r1, ip
 8001eb6:	4689      	mov	r9, r1
 8001eb8:	425b      	negs	r3, r3
 8001eba:	4499      	add	r9, r3
 8001ebc:	464b      	mov	r3, r9
 8001ebe:	021b      	lsls	r3, r3, #8
 8001ec0:	d400      	bmi.n	8001ec4 <__aeabi_dsub+0x678>
 8001ec2:	e631      	b.n	8001b28 <__aeabi_dsub+0x2dc>
 8001ec4:	464a      	mov	r2, r9
 8001ec6:	4b17      	ldr	r3, [pc, #92]	; (8001f24 <__aeabi_dsub+0x6d8>)
 8001ec8:	401a      	ands	r2, r3
 8001eca:	2301      	movs	r3, #1
 8001ecc:	4691      	mov	r9, r2
 8001ece:	4698      	mov	r8, r3
 8001ed0:	e62a      	b.n	8001b28 <__aeabi_dsub+0x2dc>
 8001ed2:	0016      	movs	r6, r2
 8001ed4:	4664      	mov	r4, ip
 8001ed6:	3e20      	subs	r6, #32
 8001ed8:	40f4      	lsrs	r4, r6
 8001eda:	46a0      	mov	r8, r4
 8001edc:	2a20      	cmp	r2, #32
 8001ede:	d005      	beq.n	8001eec <__aeabi_dsub+0x6a0>
 8001ee0:	2640      	movs	r6, #64	; 0x40
 8001ee2:	4664      	mov	r4, ip
 8001ee4:	1ab2      	subs	r2, r6, r2
 8001ee6:	4094      	lsls	r4, r2
 8001ee8:	4323      	orrs	r3, r4
 8001eea:	469a      	mov	sl, r3
 8001eec:	4654      	mov	r4, sl
 8001eee:	1e63      	subs	r3, r4, #1
 8001ef0:	419c      	sbcs	r4, r3
 8001ef2:	4643      	mov	r3, r8
 8001ef4:	431c      	orrs	r4, r3
 8001ef6:	e5db      	b.n	8001ab0 <__aeabi_dsub+0x264>
 8001ef8:	0002      	movs	r2, r0
 8001efa:	2400      	movs	r4, #0
 8001efc:	2300      	movs	r3, #0
 8001efe:	e548      	b.n	8001992 <__aeabi_dsub+0x146>
 8001f00:	19dc      	adds	r4, r3, r7
 8001f02:	42bc      	cmp	r4, r7
 8001f04:	41bf      	sbcs	r7, r7
 8001f06:	4461      	add	r1, ip
 8001f08:	4689      	mov	r9, r1
 8001f0a:	427f      	negs	r7, r7
 8001f0c:	44b9      	add	r9, r7
 8001f0e:	e738      	b.n	8001d82 <__aeabi_dsub+0x536>
 8001f10:	464b      	mov	r3, r9
 8001f12:	4323      	orrs	r3, r4
 8001f14:	d100      	bne.n	8001f18 <__aeabi_dsub+0x6cc>
 8001f16:	e69f      	b.n	8001c58 <__aeabi_dsub+0x40c>
 8001f18:	e606      	b.n	8001b28 <__aeabi_dsub+0x2dc>
 8001f1a:	46c0      	nop			; (mov r8, r8)
 8001f1c:	000007fe 	.word	0x000007fe
 8001f20:	000007ff 	.word	0x000007ff
 8001f24:	ff7fffff 	.word	0xff7fffff
 8001f28:	08ff      	lsrs	r7, r7, #3
 8001f2a:	074b      	lsls	r3, r1, #29
 8001f2c:	433b      	orrs	r3, r7
 8001f2e:	08cc      	lsrs	r4, r1, #3
 8001f30:	e616      	b.n	8001b60 <__aeabi_dsub+0x314>
 8001f32:	4662      	mov	r2, ip
 8001f34:	08db      	lsrs	r3, r3, #3
 8001f36:	0752      	lsls	r2, r2, #29
 8001f38:	4313      	orrs	r3, r2
 8001f3a:	4662      	mov	r2, ip
 8001f3c:	08d4      	lsrs	r4, r2, #3
 8001f3e:	2280      	movs	r2, #128	; 0x80
 8001f40:	0312      	lsls	r2, r2, #12
 8001f42:	4214      	tst	r4, r2
 8001f44:	d007      	beq.n	8001f56 <__aeabi_dsub+0x70a>
 8001f46:	08c8      	lsrs	r0, r1, #3
 8001f48:	4210      	tst	r0, r2
 8001f4a:	d104      	bne.n	8001f56 <__aeabi_dsub+0x70a>
 8001f4c:	465d      	mov	r5, fp
 8001f4e:	0004      	movs	r4, r0
 8001f50:	08fb      	lsrs	r3, r7, #3
 8001f52:	0749      	lsls	r1, r1, #29
 8001f54:	430b      	orrs	r3, r1
 8001f56:	0f5a      	lsrs	r2, r3, #29
 8001f58:	00db      	lsls	r3, r3, #3
 8001f5a:	0752      	lsls	r2, r2, #29
 8001f5c:	08db      	lsrs	r3, r3, #3
 8001f5e:	4313      	orrs	r3, r2
 8001f60:	e5fe      	b.n	8001b60 <__aeabi_dsub+0x314>
 8001f62:	2300      	movs	r3, #0
 8001f64:	4a01      	ldr	r2, [pc, #4]	; (8001f6c <__aeabi_dsub+0x720>)
 8001f66:	001c      	movs	r4, r3
 8001f68:	e513      	b.n	8001992 <__aeabi_dsub+0x146>
 8001f6a:	46c0      	nop			; (mov r8, r8)
 8001f6c:	000007ff 	.word	0x000007ff

08001f70 <__aeabi_d2iz>:
 8001f70:	000a      	movs	r2, r1
 8001f72:	b530      	push	{r4, r5, lr}
 8001f74:	4c13      	ldr	r4, [pc, #76]	; (8001fc4 <__aeabi_d2iz+0x54>)
 8001f76:	0053      	lsls	r3, r2, #1
 8001f78:	0309      	lsls	r1, r1, #12
 8001f7a:	0005      	movs	r5, r0
 8001f7c:	0b09      	lsrs	r1, r1, #12
 8001f7e:	2000      	movs	r0, #0
 8001f80:	0d5b      	lsrs	r3, r3, #21
 8001f82:	0fd2      	lsrs	r2, r2, #31
 8001f84:	42a3      	cmp	r3, r4
 8001f86:	dd04      	ble.n	8001f92 <__aeabi_d2iz+0x22>
 8001f88:	480f      	ldr	r0, [pc, #60]	; (8001fc8 <__aeabi_d2iz+0x58>)
 8001f8a:	4283      	cmp	r3, r0
 8001f8c:	dd02      	ble.n	8001f94 <__aeabi_d2iz+0x24>
 8001f8e:	4b0f      	ldr	r3, [pc, #60]	; (8001fcc <__aeabi_d2iz+0x5c>)
 8001f90:	18d0      	adds	r0, r2, r3
 8001f92:	bd30      	pop	{r4, r5, pc}
 8001f94:	2080      	movs	r0, #128	; 0x80
 8001f96:	0340      	lsls	r0, r0, #13
 8001f98:	4301      	orrs	r1, r0
 8001f9a:	480d      	ldr	r0, [pc, #52]	; (8001fd0 <__aeabi_d2iz+0x60>)
 8001f9c:	1ac0      	subs	r0, r0, r3
 8001f9e:	281f      	cmp	r0, #31
 8001fa0:	dd08      	ble.n	8001fb4 <__aeabi_d2iz+0x44>
 8001fa2:	480c      	ldr	r0, [pc, #48]	; (8001fd4 <__aeabi_d2iz+0x64>)
 8001fa4:	1ac3      	subs	r3, r0, r3
 8001fa6:	40d9      	lsrs	r1, r3
 8001fa8:	000b      	movs	r3, r1
 8001faa:	4258      	negs	r0, r3
 8001fac:	2a00      	cmp	r2, #0
 8001fae:	d1f0      	bne.n	8001f92 <__aeabi_d2iz+0x22>
 8001fb0:	0018      	movs	r0, r3
 8001fb2:	e7ee      	b.n	8001f92 <__aeabi_d2iz+0x22>
 8001fb4:	4c08      	ldr	r4, [pc, #32]	; (8001fd8 <__aeabi_d2iz+0x68>)
 8001fb6:	40c5      	lsrs	r5, r0
 8001fb8:	46a4      	mov	ip, r4
 8001fba:	4463      	add	r3, ip
 8001fbc:	4099      	lsls	r1, r3
 8001fbe:	000b      	movs	r3, r1
 8001fc0:	432b      	orrs	r3, r5
 8001fc2:	e7f2      	b.n	8001faa <__aeabi_d2iz+0x3a>
 8001fc4:	000003fe 	.word	0x000003fe
 8001fc8:	0000041d 	.word	0x0000041d
 8001fcc:	7fffffff 	.word	0x7fffffff
 8001fd0:	00000433 	.word	0x00000433
 8001fd4:	00000413 	.word	0x00000413
 8001fd8:	fffffbed 	.word	0xfffffbed

08001fdc <__aeabi_ui2d>:
 8001fdc:	b510      	push	{r4, lr}
 8001fde:	1e04      	subs	r4, r0, #0
 8001fe0:	d010      	beq.n	8002004 <__aeabi_ui2d+0x28>
 8001fe2:	f000 f821 	bl	8002028 <__clzsi2>
 8001fe6:	4b0f      	ldr	r3, [pc, #60]	; (8002024 <__aeabi_ui2d+0x48>)
 8001fe8:	1a1b      	subs	r3, r3, r0
 8001fea:	280a      	cmp	r0, #10
 8001fec:	dc11      	bgt.n	8002012 <__aeabi_ui2d+0x36>
 8001fee:	220b      	movs	r2, #11
 8001ff0:	0021      	movs	r1, r4
 8001ff2:	1a12      	subs	r2, r2, r0
 8001ff4:	40d1      	lsrs	r1, r2
 8001ff6:	3015      	adds	r0, #21
 8001ff8:	030a      	lsls	r2, r1, #12
 8001ffa:	055b      	lsls	r3, r3, #21
 8001ffc:	4084      	lsls	r4, r0
 8001ffe:	0b12      	lsrs	r2, r2, #12
 8002000:	0d5b      	lsrs	r3, r3, #21
 8002002:	e001      	b.n	8002008 <__aeabi_ui2d+0x2c>
 8002004:	2300      	movs	r3, #0
 8002006:	2200      	movs	r2, #0
 8002008:	051b      	lsls	r3, r3, #20
 800200a:	4313      	orrs	r3, r2
 800200c:	0020      	movs	r0, r4
 800200e:	0019      	movs	r1, r3
 8002010:	bd10      	pop	{r4, pc}
 8002012:	0022      	movs	r2, r4
 8002014:	380b      	subs	r0, #11
 8002016:	4082      	lsls	r2, r0
 8002018:	055b      	lsls	r3, r3, #21
 800201a:	0312      	lsls	r2, r2, #12
 800201c:	2400      	movs	r4, #0
 800201e:	0b12      	lsrs	r2, r2, #12
 8002020:	0d5b      	lsrs	r3, r3, #21
 8002022:	e7f1      	b.n	8002008 <__aeabi_ui2d+0x2c>
 8002024:	0000041e 	.word	0x0000041e

08002028 <__clzsi2>:
 8002028:	211c      	movs	r1, #28
 800202a:	2301      	movs	r3, #1
 800202c:	041b      	lsls	r3, r3, #16
 800202e:	4298      	cmp	r0, r3
 8002030:	d301      	bcc.n	8002036 <__clzsi2+0xe>
 8002032:	0c00      	lsrs	r0, r0, #16
 8002034:	3910      	subs	r1, #16
 8002036:	0a1b      	lsrs	r3, r3, #8
 8002038:	4298      	cmp	r0, r3
 800203a:	d301      	bcc.n	8002040 <__clzsi2+0x18>
 800203c:	0a00      	lsrs	r0, r0, #8
 800203e:	3908      	subs	r1, #8
 8002040:	091b      	lsrs	r3, r3, #4
 8002042:	4298      	cmp	r0, r3
 8002044:	d301      	bcc.n	800204a <__clzsi2+0x22>
 8002046:	0900      	lsrs	r0, r0, #4
 8002048:	3904      	subs	r1, #4
 800204a:	a202      	add	r2, pc, #8	; (adr r2, 8002054 <__clzsi2+0x2c>)
 800204c:	5c10      	ldrb	r0, [r2, r0]
 800204e:	1840      	adds	r0, r0, r1
 8002050:	4770      	bx	lr
 8002052:	46c0      	nop			; (mov r8, r8)
 8002054:	02020304 	.word	0x02020304
 8002058:	01010101 	.word	0x01010101
	...

08002064 <__clzdi2>:
 8002064:	b510      	push	{r4, lr}
 8002066:	2900      	cmp	r1, #0
 8002068:	d103      	bne.n	8002072 <__clzdi2+0xe>
 800206a:	f7ff ffdd 	bl	8002028 <__clzsi2>
 800206e:	3020      	adds	r0, #32
 8002070:	e002      	b.n	8002078 <__clzdi2+0x14>
 8002072:	0008      	movs	r0, r1
 8002074:	f7ff ffd8 	bl	8002028 <__clzsi2>
 8002078:	bd10      	pop	{r4, pc}
 800207a:	46c0      	nop			; (mov r8, r8)

0800207c <i2c1GpioInit>:
 800207c:	2302      	movs	r3, #2
 800207e:	4a1e      	ldr	r2, [pc, #120]	; (80020f8 <i2c1GpioInit+0x7c>)
 8002080:	6b51      	ldr	r1, [r2, #52]	; 0x34
 8002082:	430b      	orrs	r3, r1
 8002084:	6353      	str	r3, [r2, #52]	; 0x34
 8002086:	4b1d      	ldr	r3, [pc, #116]	; (80020fc <i2c1GpioInit+0x80>)
 8002088:	491d      	ldr	r1, [pc, #116]	; (8002100 <i2c1GpioInit+0x84>)
 800208a:	681a      	ldr	r2, [r3, #0]
 800208c:	400a      	ands	r2, r1
 800208e:	601a      	str	r2, [r3, #0]
 8002090:	2280      	movs	r2, #128	; 0x80
 8002092:	6819      	ldr	r1, [r3, #0]
 8002094:	0192      	lsls	r2, r2, #6
 8002096:	430a      	orrs	r2, r1
 8002098:	601a      	str	r2, [r3, #0]
 800209a:	681a      	ldr	r2, [r3, #0]
 800209c:	4919      	ldr	r1, [pc, #100]	; (8002104 <i2c1GpioInit+0x88>)
 800209e:	400a      	ands	r2, r1
 80020a0:	601a      	str	r2, [r3, #0]
 80020a2:	2280      	movs	r2, #128	; 0x80
 80020a4:	6819      	ldr	r1, [r3, #0]
 80020a6:	0212      	lsls	r2, r2, #8
 80020a8:	430a      	orrs	r2, r1
 80020aa:	601a      	str	r2, [r3, #0]
 80020ac:	6a1a      	ldr	r2, [r3, #32]
 80020ae:	4916      	ldr	r1, [pc, #88]	; (8002108 <i2c1GpioInit+0x8c>)
 80020b0:	400a      	ands	r2, r1
 80020b2:	621a      	str	r2, [r3, #32]
 80020b4:	22f0      	movs	r2, #240	; 0xf0
 80020b6:	6a19      	ldr	r1, [r3, #32]
 80020b8:	0552      	lsls	r2, r2, #21
 80020ba:	430a      	orrs	r2, r1
 80020bc:	621a      	str	r2, [r3, #32]
 80020be:	22f0      	movs	r2, #240	; 0xf0
 80020c0:	6a19      	ldr	r1, [r3, #32]
 80020c2:	0592      	lsls	r2, r2, #22
 80020c4:	430a      	orrs	r2, r1
 80020c6:	621a      	str	r2, [r3, #32]
 80020c8:	6a1a      	ldr	r2, [r3, #32]
 80020ca:	4910      	ldr	r1, [pc, #64]	; (800210c <i2c1GpioInit+0x90>)
 80020cc:	400a      	ands	r2, r1
 80020ce:	621a      	str	r2, [r3, #32]
 80020d0:	6a1a      	ldr	r2, [r3, #32]
 80020d2:	0112      	lsls	r2, r2, #4
 80020d4:	0912      	lsrs	r2, r2, #4
 80020d6:	621a      	str	r2, [r3, #32]
 80020d8:	22e0      	movs	r2, #224	; 0xe0
 80020da:	6a19      	ldr	r1, [r3, #32]
 80020dc:	0612      	lsls	r2, r2, #24
 80020de:	430a      	orrs	r2, r1
 80020e0:	621a      	str	r2, [r3, #32]
 80020e2:	22c0      	movs	r2, #192	; 0xc0
 80020e4:	6a19      	ldr	r1, [r3, #32]
 80020e6:	0612      	lsls	r2, r2, #24
 80020e8:	430a      	orrs	r2, r1
 80020ea:	621a      	str	r2, [r3, #32]
 80020ec:	6a1a      	ldr	r2, [r3, #32]
 80020ee:	0052      	lsls	r2, r2, #1
 80020f0:	0852      	lsrs	r2, r2, #1
 80020f2:	621a      	str	r2, [r3, #32]
 80020f4:	4770      	bx	lr
 80020f6:	46c0      	nop			; (mov r8, r8)
 80020f8:	40021000 	.word	0x40021000
 80020fc:	50000400 	.word	0x50000400
 8002100:	ffffefff 	.word	0xffffefff
 8002104:	ffffbfff 	.word	0xffffbfff
 8002108:	f0ffffff 	.word	0xf0ffffff
 800210c:	87ffffff 	.word	0x87ffffff

08002110 <i2c1MasterInit>:
 8002110:	b510      	push	{r4, lr}
 8002112:	f7ff ffb3 	bl	800207c <i2c1GpioInit>
 8002116:	2380      	movs	r3, #128	; 0x80
 8002118:	4a0f      	ldr	r2, [pc, #60]	; (8002158 <i2c1MasterInit+0x48>)
 800211a:	039b      	lsls	r3, r3, #14
 800211c:	6bd1      	ldr	r1, [r2, #60]	; 0x3c
 800211e:	4c0f      	ldr	r4, [pc, #60]	; (800215c <i2c1MasterInit+0x4c>)
 8002120:	430b      	orrs	r3, r1
 8002122:	63d3      	str	r3, [r2, #60]	; 0x3c
 8002124:	2201      	movs	r2, #1
 8002126:	4b0e      	ldr	r3, [pc, #56]	; (8002160 <i2c1MasterInit+0x50>)
 8002128:	6819      	ldr	r1, [r3, #0]
 800212a:	4391      	bics	r1, r2
 800212c:	6019      	str	r1, [r3, #0]
 800212e:	490d      	ldr	r1, [pc, #52]	; (8002164 <i2c1MasterInit+0x54>)
 8002130:	6119      	str	r1, [r3, #16]
 8002132:	4b0d      	ldr	r3, [pc, #52]	; (8002168 <i2c1MasterInit+0x58>)
 8002134:	6898      	ldr	r0, [r3, #8]
 8002136:	4020      	ands	r0, r4
 8002138:	6098      	str	r0, [r3, #8]
 800213a:	68d9      	ldr	r1, [r3, #12]
 800213c:	4021      	ands	r1, r4
 800213e:	60d9      	str	r1, [r3, #12]
 8002140:	2104      	movs	r1, #4
 8002142:	6818      	ldr	r0, [r3, #0]
 8002144:	4301      	orrs	r1, r0
 8002146:	6019      	str	r1, [r3, #0]
 8002148:	2102      	movs	r1, #2
 800214a:	6818      	ldr	r0, [r3, #0]
 800214c:	4301      	orrs	r1, r0
 800214e:	6019      	str	r1, [r3, #0]
 8002150:	6819      	ldr	r1, [r3, #0]
 8002152:	430a      	orrs	r2, r1
 8002154:	601a      	str	r2, [r3, #0]
 8002156:	bd10      	pop	{r4, pc}
 8002158:	40021000 	.word	0x40021000
 800215c:	ffff7fff 	.word	0xffff7fff
 8002160:	40005400 	.word	0x40005400
 8002164:	00303d5b 	.word	0x00303d5b
 8002168:	40005800 	.word	0x40005800

0800216c <i2c1MasterStartTransfer>:
 800216c:	b530      	push	{r4, r5, lr}
 800216e:	2401      	movs	r4, #1
 8002170:	4b13      	ldr	r3, [pc, #76]	; (80021c0 <i2c1MasterStartTransfer+0x54>)
 8002172:	0412      	lsls	r2, r2, #16
 8002174:	681d      	ldr	r5, [r3, #0]
 8002176:	432c      	orrs	r4, r5
 8002178:	601c      	str	r4, [r3, #0]
 800217a:	685c      	ldr	r4, [r3, #4]
 800217c:	0aa4      	lsrs	r4, r4, #10
 800217e:	02a4      	lsls	r4, r4, #10
 8002180:	4304      	orrs	r4, r0
 8002182:	605c      	str	r4, [r3, #4]
 8002184:	6858      	ldr	r0, [r3, #4]
 8002186:	4c0f      	ldr	r4, [pc, #60]	; (80021c4 <i2c1MasterStartTransfer+0x58>)
 8002188:	4020      	ands	r0, r4
 800218a:	4310      	orrs	r0, r2
 800218c:	2280      	movs	r2, #128	; 0x80
 800218e:	6058      	str	r0, [r3, #4]
 8002190:	6858      	ldr	r0, [r3, #4]
 8002192:	0492      	lsls	r2, r2, #18
 8002194:	4302      	orrs	r2, r0
 8002196:	605a      	str	r2, [r3, #4]
 8002198:	2901      	cmp	r1, #1
 800219a:	d10a      	bne.n	80021b2 <i2c1MasterStartTransfer+0x46>
 800219c:	2280      	movs	r2, #128	; 0x80
 800219e:	6859      	ldr	r1, [r3, #4]
 80021a0:	00d2      	lsls	r2, r2, #3
 80021a2:	430a      	orrs	r2, r1
 80021a4:	605a      	str	r2, [r3, #4]
 80021a6:	2280      	movs	r2, #128	; 0x80
 80021a8:	6859      	ldr	r1, [r3, #4]
 80021aa:	0192      	lsls	r2, r2, #6
 80021ac:	430a      	orrs	r2, r1
 80021ae:	605a      	str	r2, [r3, #4]
 80021b0:	bd30      	pop	{r4, r5, pc}
 80021b2:	2900      	cmp	r1, #0
 80021b4:	d1f7      	bne.n	80021a6 <i2c1MasterStartTransfer+0x3a>
 80021b6:	685a      	ldr	r2, [r3, #4]
 80021b8:	4903      	ldr	r1, [pc, #12]	; (80021c8 <i2c1MasterStartTransfer+0x5c>)
 80021ba:	400a      	ands	r2, r1
 80021bc:	e7f2      	b.n	80021a4 <i2c1MasterStartTransfer+0x38>
 80021be:	46c0      	nop			; (mov r8, r8)
 80021c0:	40005400 	.word	0x40005400
 80021c4:	ff00ffff 	.word	0xff00ffff
 80021c8:	fffffbff 	.word	0xfffffbff

080021cc <i2c1MasterFrameRx>:
 80021cc:	b5f7      	push	{r0, r1, r2, r4, r5, r6, r7, lr}
 80021ce:	0004      	movs	r4, r0
 80021d0:	0016      	movs	r6, r2
 80021d2:	9101      	str	r1, [sp, #4]
 80021d4:	f000 fed4 	bl	8002f80 <HAL_GetTick>
 80021d8:	0032      	movs	r2, r6
 80021da:	9000      	str	r0, [sp, #0]
 80021dc:	2101      	movs	r1, #1
 80021de:	0020      	movs	r0, r4
 80021e0:	f7ff ffc4 	bl	800216c <i2c1MasterStartTransfer>
 80021e4:	2500      	movs	r5, #0
 80021e6:	2704      	movs	r7, #4
 80021e8:	4c0e      	ldr	r4, [pc, #56]	; (8002224 <i2c1MasterFrameRx+0x58>)
 80021ea:	42ae      	cmp	r6, r5
 80021ec:	dc12      	bgt.n	8002214 <i2c1MasterFrameRx+0x48>
 80021ee:	2320      	movs	r3, #32
 80021f0:	69a2      	ldr	r2, [r4, #24]
 80021f2:	421a      	tst	r2, r3
 80021f4:	d0fc      	beq.n	80021f0 <i2c1MasterFrameRx+0x24>
 80021f6:	69e2      	ldr	r2, [r4, #28]
 80021f8:	4313      	orrs	r3, r2
 80021fa:	61e3      	str	r3, [r4, #28]
 80021fc:	e009      	b.n	8002212 <i2c1MasterFrameRx+0x46>
 80021fe:	f000 febf 	bl	8002f80 <HAL_GetTick>
 8002202:	9b00      	ldr	r3, [sp, #0]
 8002204:	1ac0      	subs	r0, r0, r3
 8002206:	2814      	cmp	r0, #20
 8002208:	d904      	bls.n	8002214 <i2c1MasterFrameRx+0x48>
 800220a:	2201      	movs	r2, #1
 800220c:	6823      	ldr	r3, [r4, #0]
 800220e:	4393      	bics	r3, r2
 8002210:	6023      	str	r3, [r4, #0]
 8002212:	bdf7      	pop	{r0, r1, r2, r4, r5, r6, r7, pc}
 8002214:	69a3      	ldr	r3, [r4, #24]
 8002216:	423b      	tst	r3, r7
 8002218:	d0f1      	beq.n	80021fe <i2c1MasterFrameRx+0x32>
 800221a:	6a63      	ldr	r3, [r4, #36]	; 0x24
 800221c:	9a01      	ldr	r2, [sp, #4]
 800221e:	5553      	strb	r3, [r2, r5]
 8002220:	3501      	adds	r5, #1
 8002222:	e7e1      	b.n	80021e8 <i2c1MasterFrameRx+0x1c>
 8002224:	40005400 	.word	0x40005400

08002228 <i2c1MasterByteTx>:
 8002228:	b5f7      	push	{r0, r1, r2, r4, r5, r6, r7, lr}
 800222a:	9101      	str	r1, [sp, #4]
 800222c:	2100      	movs	r1, #0
 800222e:	0016      	movs	r6, r2
 8002230:	f7ff ff9c 	bl	800216c <i2c1MasterStartTransfer>
 8002234:	f000 fea4 	bl	8002f80 <HAL_GetTick>
 8002238:	2500      	movs	r5, #0
 800223a:	27ff      	movs	r7, #255	; 0xff
 800223c:	9000      	str	r0, [sp, #0]
 800223e:	4c11      	ldr	r4, [pc, #68]	; (8002284 <i2c1MasterByteTx+0x5c>)
 8002240:	42ae      	cmp	r6, r5
 8002242:	dc12      	bgt.n	800226a <i2c1MasterByteTx+0x42>
 8002244:	2320      	movs	r3, #32
 8002246:	69a2      	ldr	r2, [r4, #24]
 8002248:	421a      	tst	r2, r3
 800224a:	d0fc      	beq.n	8002246 <i2c1MasterByteTx+0x1e>
 800224c:	69a2      	ldr	r2, [r4, #24]
 800224e:	4313      	orrs	r3, r2
 8002250:	61a3      	str	r3, [r4, #24]
 8002252:	e009      	b.n	8002268 <i2c1MasterByteTx+0x40>
 8002254:	f000 fe94 	bl	8002f80 <HAL_GetTick>
 8002258:	9b00      	ldr	r3, [sp, #0]
 800225a:	1ac0      	subs	r0, r0, r3
 800225c:	2814      	cmp	r0, #20
 800225e:	d904      	bls.n	800226a <i2c1MasterByteTx+0x42>
 8002260:	2201      	movs	r2, #1
 8002262:	6823      	ldr	r3, [r4, #0]
 8002264:	4393      	bics	r3, r2
 8002266:	6023      	str	r3, [r4, #0]
 8002268:	bdf7      	pop	{r0, r1, r2, r4, r5, r6, r7, pc}
 800226a:	2202      	movs	r2, #2
 800226c:	69a3      	ldr	r3, [r4, #24]
 800226e:	4213      	tst	r3, r2
 8002270:	d0f0      	beq.n	8002254 <i2c1MasterByteTx+0x2c>
 8002272:	9a01      	ldr	r2, [sp, #4]
 8002274:	6aa3      	ldr	r3, [r4, #40]	; 0x28
 8002276:	5d52      	ldrb	r2, [r2, r5]
 8002278:	43bb      	bics	r3, r7
 800227a:	4313      	orrs	r3, r2
 800227c:	62a3      	str	r3, [r4, #40]	; 0x28
 800227e:	3501      	adds	r5, #1
 8002280:	e7dd      	b.n	800223e <i2c1MasterByteTx+0x16>
 8002282:	46c0      	nop			; (mov r8, r8)
 8002284:	40005400 	.word	0x40005400

08002288 <led_enable_kalive>:
 8002288:	b510      	push	{r4, lr}
 800228a:	0004      	movs	r4, r0
 800228c:	f000 fe78 	bl	8002f80 <HAL_GetTick>
 8002290:	6823      	ldr	r3, [r4, #0]
 8002292:	1ac0      	subs	r0, r0, r3
 8002294:	23fa      	movs	r3, #250	; 0xfa
 8002296:	009b      	lsls	r3, r3, #2
 8002298:	4298      	cmp	r0, r3
 800229a:	d903      	bls.n	80022a4 <led_enable_kalive+0x1c>
 800229c:	f000 fe70 	bl	8002f80 <HAL_GetTick>
 80022a0:	6020      	str	r0, [r4, #0]
 80022a2:	bd10      	pop	{r4, pc}
 80022a4:	f000 fe6c 	bl	8002f80 <HAL_GetTick>
 80022a8:	6823      	ldr	r3, [r4, #0]
 80022aa:	2202      	movs	r2, #2
 80022ac:	1ac0      	subs	r0, r0, r3
 80022ae:	4b05      	ldr	r3, [pc, #20]	; (80022c4 <led_enable_kalive+0x3c>)
 80022b0:	6959      	ldr	r1, [r3, #20]
 80022b2:	2832      	cmp	r0, #50	; 0x32
 80022b4:	d902      	bls.n	80022bc <led_enable_kalive+0x34>
 80022b6:	4391      	bics	r1, r2
 80022b8:	6159      	str	r1, [r3, #20]
 80022ba:	e7f2      	b.n	80022a2 <led_enable_kalive+0x1a>
 80022bc:	430a      	orrs	r2, r1
 80022be:	615a      	str	r2, [r3, #20]
 80022c0:	e7ef      	b.n	80022a2 <led_enable_kalive+0x1a>
 80022c2:	46c0      	nop			; (mov r8, r8)
 80022c4:	50000400 	.word	0x50000400

080022c8 <led_reset>:
 80022c8:	b570      	push	{r4, r5, r6, lr}
 80022ca:	2500      	movs	r5, #0
 80022cc:	60c5      	str	r5, [r0, #12]
 80022ce:	6045      	str	r5, [r0, #4]
 80022d0:	6085      	str	r5, [r0, #8]
 80022d2:	0004      	movs	r4, r0
 80022d4:	f000 fe54 	bl	8002f80 <HAL_GetTick>
 80022d8:	6125      	str	r5, [r4, #16]
 80022da:	61a5      	str	r5, [r4, #24]
 80022dc:	6165      	str	r5, [r4, #20]
 80022de:	6020      	str	r0, [r4, #0]
 80022e0:	bd70      	pop	{r4, r5, r6, pc}
	...

080022e4 <led_init>:
 80022e4:	23a0      	movs	r3, #160	; 0xa0
 80022e6:	2280      	movs	r2, #128	; 0x80
 80022e8:	05db      	lsls	r3, r3, #23
 80022ea:	6819      	ldr	r1, [r3, #0]
 80022ec:	01d2      	lsls	r2, r2, #7
 80022ee:	430a      	orrs	r2, r1
 80022f0:	b510      	push	{r4, lr}
 80022f2:	601a      	str	r2, [r3, #0]
 80022f4:	681a      	ldr	r2, [r3, #0]
 80022f6:	490b      	ldr	r1, [pc, #44]	; (8002324 <led_init+0x40>)
 80022f8:	400a      	ands	r2, r1
 80022fa:	601a      	str	r2, [r3, #0]
 80022fc:	2201      	movs	r2, #1
 80022fe:	4b0a      	ldr	r3, [pc, #40]	; (8002328 <led_init+0x44>)
 8002300:	6819      	ldr	r1, [r3, #0]
 8002302:	430a      	orrs	r2, r1
 8002304:	2102      	movs	r1, #2
 8002306:	601a      	str	r2, [r3, #0]
 8002308:	681a      	ldr	r2, [r3, #0]
 800230a:	438a      	bics	r2, r1
 800230c:	601a      	str	r2, [r3, #0]
 800230e:	2204      	movs	r2, #4
 8002310:	6819      	ldr	r1, [r3, #0]
 8002312:	430a      	orrs	r2, r1
 8002314:	2108      	movs	r1, #8
 8002316:	601a      	str	r2, [r3, #0]
 8002318:	681a      	ldr	r2, [r3, #0]
 800231a:	438a      	bics	r2, r1
 800231c:	601a      	str	r2, [r3, #0]
 800231e:	f7ff ffd3 	bl	80022c8 <led_reset>
 8002322:	bd10      	pop	{r4, pc}
 8002324:	ffff7fff 	.word	0xffff7fff
 8002328:	50000400 	.word	0x50000400

0800232c <m24c64ReadNBytes>:
 800232c:	b537      	push	{r0, r1, r2, r4, r5, lr}
 800232e:	001d      	movs	r5, r3
 8002330:	466b      	mov	r3, sp
 8002332:	000c      	movs	r4, r1
 8002334:	0140      	lsls	r0, r0, #5
 8002336:	4302      	orrs	r2, r0
 8002338:	0a00      	lsrs	r0, r0, #8
 800233a:	7118      	strb	r0, [r3, #4]
 800233c:	715a      	strb	r2, [r3, #5]
 800233e:	a901      	add	r1, sp, #4
 8002340:	2202      	movs	r2, #2
 8002342:	20a0      	movs	r0, #160	; 0xa0
 8002344:	f7ff ff70 	bl	8002228 <i2c1MasterByteTx>
 8002348:	2005      	movs	r0, #5
 800234a:	f000 fe1f 	bl	8002f8c <HAL_Delay>
 800234e:	002a      	movs	r2, r5
 8002350:	0021      	movs	r1, r4
 8002352:	20a0      	movs	r0, #160	; 0xa0
 8002354:	f7ff ff3a 	bl	80021cc <i2c1MasterFrameRx>
 8002358:	bd37      	pop	{r0, r1, r2, r4, r5, pc}

0800235a <getFreqOutFromEeprom>:
 800235a:	2203      	movs	r2, #3
 800235c:	b570      	push	{r4, r5, r6, lr}
 800235e:	2308      	movs	r3, #8
 8002360:	0005      	movs	r5, r0
 8002362:	000c      	movs	r4, r1
 8002364:	0001      	movs	r1, r0
 8002366:	0010      	movs	r0, r2
 8002368:	f7ff ffe0 	bl	800232c <m24c64ReadNBytes>
 800236c:	2307      	movs	r3, #7
 800236e:	5cea      	ldrb	r2, [r5, r3]
 8002370:	00d9      	lsls	r1, r3, #3
 8002372:	408a      	lsls	r2, r1
 8002374:	6820      	ldr	r0, [r4, #0]
 8002376:	17d1      	asrs	r1, r2, #31
 8002378:	4302      	orrs	r2, r0
 800237a:	6860      	ldr	r0, [r4, #4]
 800237c:	6022      	str	r2, [r4, #0]
 800237e:	4301      	orrs	r1, r0
 8002380:	6061      	str	r1, [r4, #4]
 8002382:	3b01      	subs	r3, #1
 8002384:	d2f3      	bcs.n	800236e <getFreqOutFromEeprom+0x14>
 8002386:	bd70      	pop	{r4, r5, r6, pc}

08002388 <getFreqOut>:
 8002388:	b5f8      	push	{r3, r4, r5, r6, r7, lr}
 800238a:	2104      	movs	r1, #4
 800238c:	0004      	movs	r4, r0
 800238e:	4840      	ldr	r0, [pc, #256]	; (8002490 <getFreqOut+0x108>)
 8002390:	f000 ff00 	bl	8003194 <HAL_GPIO_ReadPin>
 8002394:	1e43      	subs	r3, r0, #1
 8002396:	4198      	sbcs	r0, r3
 8002398:	2180      	movs	r1, #128	; 0x80
 800239a:	4247      	negs	r7, r0
 800239c:	20a0      	movs	r0, #160	; 0xa0
 800239e:	4e3d      	ldr	r6, [pc, #244]	; (8002494 <getFreqOut+0x10c>)
 80023a0:	4b3d      	ldr	r3, [pc, #244]	; (8002498 <getFreqOut+0x110>)
 80023a2:	4037      	ands	r7, r6
 80023a4:	0049      	lsls	r1, r1, #1
 80023a6:	05c0      	lsls	r0, r0, #23
 80023a8:	18ff      	adds	r7, r7, r3
 80023aa:	f000 fef3 	bl	8003194 <HAL_GPIO_ReadPin>
 80023ae:	1e43      	subs	r3, r0, #1
 80023b0:	4198      	sbcs	r0, r3
 80023b2:	193c      	adds	r4, r7, r4
 80023b4:	4f39      	ldr	r7, [pc, #228]	; (800249c <getFreqOut+0x114>)
 80023b6:	4b3a      	ldr	r3, [pc, #232]	; (80024a0 <getFreqOut+0x118>)
 80023b8:	4240      	negs	r0, r0
 80023ba:	2140      	movs	r1, #64	; 0x40
 80023bc:	4007      	ands	r7, r0
 80023be:	4839      	ldr	r0, [pc, #228]	; (80024a4 <getFreqOut+0x11c>)
 80023c0:	18ff      	adds	r7, r7, r3
 80023c2:	f000 fee7 	bl	8003194 <HAL_GPIO_ReadPin>
 80023c6:	1e43      	subs	r3, r0, #1
 80023c8:	4198      	sbcs	r0, r3
 80023ca:	2180      	movs	r1, #128	; 0x80
 80023cc:	4245      	negs	r5, r0
 80023ce:	20a0      	movs	r0, #160	; 0xa0
 80023d0:	4e35      	ldr	r6, [pc, #212]	; (80024a8 <getFreqOut+0x120>)
 80023d2:	4b36      	ldr	r3, [pc, #216]	; (80024ac <getFreqOut+0x124>)
 80023d4:	4035      	ands	r5, r6
 80023d6:	0109      	lsls	r1, r1, #4
 80023d8:	05c0      	lsls	r0, r0, #23
 80023da:	18ed      	adds	r5, r5, r3
 80023dc:	f000 feda 	bl	8003194 <HAL_GPIO_ReadPin>
 80023e0:	1e43      	subs	r3, r0, #1
 80023e2:	4198      	sbcs	r0, r3
 80023e4:	193f      	adds	r7, r7, r4
 80023e6:	19ef      	adds	r7, r5, r7
 80023e8:	4d31      	ldr	r5, [pc, #196]	; (80024b0 <getFreqOut+0x128>)
 80023ea:	4240      	negs	r0, r0
 80023ec:	4005      	ands	r5, r0
 80023ee:	2180      	movs	r1, #128	; 0x80
 80023f0:	20a0      	movs	r0, #160	; 0xa0
 80023f2:	4b30      	ldr	r3, [pc, #192]	; (80024b4 <getFreqOut+0x12c>)
 80023f4:	0149      	lsls	r1, r1, #5
 80023f6:	05c0      	lsls	r0, r0, #23
 80023f8:	18ed      	adds	r5, r5, r3
 80023fa:	f000 fecb 	bl	8003194 <HAL_GPIO_ReadPin>
 80023fe:	1e43      	subs	r3, r0, #1
 8002400:	4198      	sbcs	r0, r3
 8002402:	19ed      	adds	r5, r5, r7
 8002404:	2180      	movs	r1, #128	; 0x80
 8002406:	4247      	negs	r7, r0
 8002408:	20a0      	movs	r0, #160	; 0xa0
 800240a:	4c2b      	ldr	r4, [pc, #172]	; (80024b8 <getFreqOut+0x130>)
 800240c:	4b2b      	ldr	r3, [pc, #172]	; (80024bc <getFreqOut+0x134>)
 800240e:	4027      	ands	r7, r4
 8002410:	0209      	lsls	r1, r1, #8
 8002412:	05c0      	lsls	r0, r0, #23
 8002414:	18ff      	adds	r7, r7, r3
 8002416:	f000 febd 	bl	8003194 <HAL_GPIO_ReadPin>
 800241a:	1e43      	subs	r3, r0, #1
 800241c:	4198      	sbcs	r0, r3
 800241e:	197d      	adds	r5, r7, r5
 8002420:	4f27      	ldr	r7, [pc, #156]	; (80024c0 <getFreqOut+0x138>)
 8002422:	4b28      	ldr	r3, [pc, #160]	; (80024c4 <getFreqOut+0x13c>)
 8002424:	4240      	negs	r0, r0
 8002426:	2108      	movs	r1, #8
 8002428:	4007      	ands	r7, r0
 800242a:	4819      	ldr	r0, [pc, #100]	; (8002490 <getFreqOut+0x108>)
 800242c:	18ff      	adds	r7, r7, r3
 800242e:	f000 feb1 	bl	8003194 <HAL_GPIO_ReadPin>
 8002432:	1e43      	subs	r3, r0, #1
 8002434:	4198      	sbcs	r0, r3
 8002436:	4e24      	ldr	r6, [pc, #144]	; (80024c8 <getFreqOut+0x140>)
 8002438:	4b24      	ldr	r3, [pc, #144]	; (80024cc <getFreqOut+0x144>)
 800243a:	197f      	adds	r7, r7, r5
 800243c:	4245      	negs	r5, r0
 800243e:	4035      	ands	r5, r6
 8002440:	2110      	movs	r1, #16
 8002442:	4813      	ldr	r0, [pc, #76]	; (8002490 <getFreqOut+0x108>)
 8002444:	18ed      	adds	r5, r5, r3
 8002446:	f000 fea5 	bl	8003194 <HAL_GPIO_ReadPin>
 800244a:	1e43      	subs	r3, r0, #1
 800244c:	4198      	sbcs	r0, r3
 800244e:	19ef      	adds	r7, r5, r7
 8002450:	4d1f      	ldr	r5, [pc, #124]	; (80024d0 <getFreqOut+0x148>)
 8002452:	4b20      	ldr	r3, [pc, #128]	; (80024d4 <getFreqOut+0x14c>)
 8002454:	4240      	negs	r0, r0
 8002456:	2120      	movs	r1, #32
 8002458:	4005      	ands	r5, r0
 800245a:	480d      	ldr	r0, [pc, #52]	; (8002490 <getFreqOut+0x108>)
 800245c:	18ed      	adds	r5, r5, r3
 800245e:	f000 fe99 	bl	8003194 <HAL_GPIO_ReadPin>
 8002462:	1e43      	subs	r3, r0, #1
 8002464:	4198      	sbcs	r0, r3
 8002466:	2180      	movs	r1, #128	; 0x80
 8002468:	4c1b      	ldr	r4, [pc, #108]	; (80024d8 <getFreqOut+0x150>)
 800246a:	4b1c      	ldr	r3, [pc, #112]	; (80024dc <getFreqOut+0x154>)
 800246c:	4240      	negs	r0, r0
 800246e:	4020      	ands	r0, r4
 8002470:	18c0      	adds	r0, r0, r3
 8002472:	19ed      	adds	r5, r5, r7
 8002474:	1945      	adds	r5, r0, r5
 8002476:	0049      	lsls	r1, r1, #1
 8002478:	4805      	ldr	r0, [pc, #20]	; (8002490 <getFreqOut+0x108>)
 800247a:	f000 fe8b 	bl	8003194 <HAL_GPIO_ReadPin>
 800247e:	1e43      	subs	r3, r0, #1
 8002480:	4198      	sbcs	r0, r3
 8002482:	4b17      	ldr	r3, [pc, #92]	; (80024e0 <getFreqOut+0x158>)
 8002484:	4240      	negs	r0, r0
 8002486:	4018      	ands	r0, r3
 8002488:	4b16      	ldr	r3, [pc, #88]	; (80024e4 <getFreqOut+0x15c>)
 800248a:	18c0      	adds	r0, r0, r3
 800248c:	1940      	adds	r0, r0, r5
 800248e:	bdf8      	pop	{r3, r4, r5, r6, r7, pc}
 8002490:	50000400 	.word	0x50000400
 8002494:	ffffcf2c 	.word	0xffffcf2c
 8002498:	000030d4 	.word	0x000030d4
 800249c:	ffff9e58 	.word	0xffff9e58
 80024a0:	000061a8 	.word	0x000061a8
 80024a4:	50000800 	.word	0x50000800
 80024a8:	ffff3cb0 	.word	0xffff3cb0
 80024ac:	0000c350 	.word	0x0000c350
 80024b0:	fffe7960 	.word	0xfffe7960
 80024b4:	000186a0 	.word	0x000186a0
 80024b8:	fffcf2c0 	.word	0xfffcf2c0
 80024bc:	00030d40 	.word	0x00030d40
 80024c0:	fff9e580 	.word	0xfff9e580
 80024c4:	00061a80 	.word	0x00061a80
 80024c8:	fff3cb00 	.word	0xfff3cb00
 80024cc:	000c3500 	.word	0x000c3500
 80024d0:	ffe79600 	.word	0xffe79600
 80024d4:	00186a00 	.word	0x00186a00
 80024d8:	ffcf2c00 	.word	0xffcf2c00
 80024dc:	0030d400 	.word	0x0030d400
 80024e0:	ff9e5800 	.word	0xff9e5800
 80024e4:	0061a800 	.word	0x0061a800

080024e8 <USART1_IRQHandler>:
 80024e8:	b510      	push	{r4, lr}
 80024ea:	4b02      	ldr	r3, [pc, #8]	; (80024f4 <USART1_IRQHandler+0xc>)
 80024ec:	6818      	ldr	r0, [r3, #0]
 80024ee:	f000 fcc3 	bl	8002e78 <uart1_read_to_frame>
 80024f2:	bd10      	pop	{r4, pc}
 80024f4:	200000f4 	.word	0x200000f4

080024f8 <SystemClock_Config>:
 80024f8:	b500      	push	{lr}
 80024fa:	b093      	sub	sp, #76	; 0x4c
 80024fc:	2234      	movs	r2, #52	; 0x34
 80024fe:	2100      	movs	r1, #0
 8002500:	a805      	add	r0, sp, #20
 8002502:	f001 fbf2 	bl	8003cea <memset>
 8002506:	2100      	movs	r1, #0
 8002508:	2210      	movs	r2, #16
 800250a:	a801      	add	r0, sp, #4
 800250c:	f001 fbed 	bl	8003cea <memset>
 8002510:	2080      	movs	r0, #128	; 0x80
 8002512:	0080      	lsls	r0, r0, #2
 8002514:	f000 fe4a 	bl	80031ac <HAL_PWREx_ControlVoltageScaling>
 8002518:	2302      	movs	r3, #2
 800251a:	9305      	str	r3, [sp, #20]
 800251c:	33fe      	adds	r3, #254	; 0xfe
 800251e:	2240      	movs	r2, #64	; 0x40
 8002520:	9308      	str	r3, [sp, #32]
 8002522:	2300      	movs	r3, #0
 8002524:	a805      	add	r0, sp, #20
 8002526:	9309      	str	r3, [sp, #36]	; 0x24
 8002528:	920a      	str	r2, [sp, #40]	; 0x28
 800252a:	930c      	str	r3, [sp, #48]	; 0x30
 800252c:	f000 fe6a 	bl	8003204 <HAL_RCC_OscConfig>
 8002530:	1e01      	subs	r1, r0, #0
 8002532:	d001      	beq.n	8002538 <SystemClock_Config+0x40>
 8002534:	b672      	cpsid	i
 8002536:	e7fe      	b.n	8002536 <SystemClock_Config+0x3e>
 8002538:	2307      	movs	r3, #7
 800253a:	9002      	str	r0, [sp, #8]
 800253c:	9003      	str	r0, [sp, #12]
 800253e:	9004      	str	r0, [sp, #16]
 8002540:	a801      	add	r0, sp, #4
 8002542:	9301      	str	r3, [sp, #4]
 8002544:	f001 f8be 	bl	80036c4 <HAL_RCC_ClockConfig>
 8002548:	2800      	cmp	r0, #0
 800254a:	d001      	beq.n	8002550 <SystemClock_Config+0x58>
 800254c:	b672      	cpsid	i
 800254e:	e7fe      	b.n	800254e <SystemClock_Config+0x56>
 8002550:	b013      	add	sp, #76	; 0x4c
 8002552:	bd00      	pop	{pc}

08002554 <main>:
 8002554:	b5f0      	push	{r4, r5, r6, r7, lr}
 8002556:	2600      	movs	r6, #0
 8002558:	b0cf      	sub	sp, #316	; 0x13c
 800255a:	4b79      	ldr	r3, [pc, #484]	; (8002740 <main+0x1ec>)
 800255c:	0031      	movs	r1, r6
 800255e:	2206      	movs	r2, #6
 8002560:	ad14      	add	r5, sp, #80	; 0x50
 8002562:	a807      	add	r0, sp, #28
 8002564:	601d      	str	r5, [r3, #0]
 8002566:	9606      	str	r6, [sp, #24]
 8002568:	f001 fbbf 	bl	8003cea <memset>
 800256c:	21e1      	movs	r1, #225	; 0xe1
 800256e:	aa09      	add	r2, sp, #36	; 0x24
 8002570:	0249      	lsls	r1, r1, #9
 8002572:	4874      	ldr	r0, [pc, #464]	; (8002744 <main+0x1f0>)
 8002574:	f000 fc3e 	bl	8002df4 <uart1_init>
 8002578:	f000 fce2 	bl	8002f40 <HAL_Init>
 800257c:	f7ff ffbc 	bl	80024f8 <SystemClock_Config>
 8002580:	0031      	movs	r1, r6
 8002582:	2214      	movs	r2, #20
 8002584:	a80d      	add	r0, sp, #52	; 0x34
 8002586:	f001 fbb0 	bl	8003cea <memset>
 800258a:	2002      	movs	r0, #2
 800258c:	2401      	movs	r4, #1
 800258e:	4b6e      	ldr	r3, [pc, #440]	; (8002748 <main+0x1f4>)
 8002590:	4f6e      	ldr	r7, [pc, #440]	; (800274c <main+0x1f8>)
 8002592:	6b59      	ldr	r1, [r3, #52]	; 0x34
 8002594:	4301      	orrs	r1, r0
 8002596:	6359      	str	r1, [r3, #52]	; 0x34
 8002598:	6b5a      	ldr	r2, [r3, #52]	; 0x34
 800259a:	4002      	ands	r2, r0
 800259c:	9203      	str	r2, [sp, #12]
 800259e:	9a03      	ldr	r2, [sp, #12]
 80025a0:	6b59      	ldr	r1, [r3, #52]	; 0x34
 80025a2:	1800      	adds	r0, r0, r0
 80025a4:	4301      	orrs	r1, r0
 80025a6:	6359      	str	r1, [r3, #52]	; 0x34
 80025a8:	6b5a      	ldr	r2, [r3, #52]	; 0x34
 80025aa:	0039      	movs	r1, r7
 80025ac:	4002      	ands	r2, r0
 80025ae:	9204      	str	r2, [sp, #16]
 80025b0:	9a04      	ldr	r2, [sp, #16]
 80025b2:	6b5a      	ldr	r2, [r3, #52]	; 0x34
 80025b4:	4866      	ldr	r0, [pc, #408]	; (8002750 <main+0x1fc>)
 80025b6:	4322      	orrs	r2, r4
 80025b8:	635a      	str	r2, [r3, #52]	; 0x34
 80025ba:	6b5b      	ldr	r3, [r3, #52]	; 0x34
 80025bc:	0032      	movs	r2, r6
 80025be:	4023      	ands	r3, r4
 80025c0:	9305      	str	r3, [sp, #20]
 80025c2:	9b05      	ldr	r3, [sp, #20]
 80025c4:	f000 fdec 	bl	80031a0 <HAL_GPIO_WritePin>
 80025c8:	20a0      	movs	r0, #160	; 0xa0
 80025ca:	0032      	movs	r2, r6
 80025cc:	21ae      	movs	r1, #174	; 0xae
 80025ce:	05c0      	lsls	r0, r0, #23
 80025d0:	f000 fde6 	bl	80031a0 <HAL_GPIO_WritePin>
 80025d4:	485e      	ldr	r0, [pc, #376]	; (8002750 <main+0x1fc>)
 80025d6:	a90d      	add	r1, sp, #52	; 0x34
 80025d8:	970d      	str	r7, [sp, #52]	; 0x34
 80025da:	960f      	str	r6, [sp, #60]	; 0x3c
 80025dc:	9610      	str	r6, [sp, #64]	; 0x40
 80025de:	940e      	str	r4, [sp, #56]	; 0x38
 80025e0:	f000 fd2a 	bl	8003038 <HAL_GPIO_Init>
 80025e4:	4b5b      	ldr	r3, [pc, #364]	; (8002754 <main+0x200>)
 80025e6:	485c      	ldr	r0, [pc, #368]	; (8002758 <main+0x204>)
 80025e8:	a90d      	add	r1, sp, #52	; 0x34
 80025ea:	930d      	str	r3, [sp, #52]	; 0x34
 80025ec:	960e      	str	r6, [sp, #56]	; 0x38
 80025ee:	960f      	str	r6, [sp, #60]	; 0x3c
 80025f0:	f000 fd22 	bl	8003038 <HAL_GPIO_Init>
 80025f4:	20a0      	movs	r0, #160	; 0xa0
 80025f6:	23ae      	movs	r3, #174	; 0xae
 80025f8:	a90d      	add	r1, sp, #52	; 0x34
 80025fa:	05c0      	lsls	r0, r0, #23
 80025fc:	930d      	str	r3, [sp, #52]	; 0x34
 80025fe:	960f      	str	r6, [sp, #60]	; 0x3c
 8002600:	9610      	str	r6, [sp, #64]	; 0x40
 8002602:	940e      	str	r4, [sp, #56]	; 0x38
 8002604:	f000 fd18 	bl	8003038 <HAL_GPIO_Init>
 8002608:	20a0      	movs	r0, #160	; 0xa0
 800260a:	4b54      	ldr	r3, [pc, #336]	; (800275c <main+0x208>)
 800260c:	a90d      	add	r1, sp, #52	; 0x34
 800260e:	05c0      	lsls	r0, r0, #23
 8002610:	930d      	str	r3, [sp, #52]	; 0x34
 8002612:	960e      	str	r6, [sp, #56]	; 0x38
 8002614:	960f      	str	r6, [sp, #60]	; 0x3c
 8002616:	f000 fd0f 	bl	8003038 <HAL_GPIO_Init>
 800261a:	239e      	movs	r3, #158	; 0x9e
 800261c:	484c      	ldr	r0, [pc, #304]	; (8002750 <main+0x1fc>)
 800261e:	005b      	lsls	r3, r3, #1
 8002620:	a90d      	add	r1, sp, #52	; 0x34
 8002622:	930d      	str	r3, [sp, #52]	; 0x34
 8002624:	960e      	str	r6, [sp, #56]	; 0x38
 8002626:	960f      	str	r6, [sp, #60]	; 0x3c
 8002628:	f000 fd06 	bl	8003038 <HAL_GPIO_Init>
 800262c:	4f4c      	ldr	r7, [pc, #304]	; (8002760 <main+0x20c>)
 800262e:	4b4d      	ldr	r3, [pc, #308]	; (8002764 <main+0x210>)
 8002630:	0038      	movs	r0, r7
 8002632:	603b      	str	r3, [r7, #0]
 8002634:	2382      	movs	r3, #130	; 0x82
 8002636:	005b      	lsls	r3, r3, #1
 8002638:	607b      	str	r3, [r7, #4]
 800263a:	2380      	movs	r3, #128	; 0x80
 800263c:	021b      	lsls	r3, r3, #8
 800263e:	60bb      	str	r3, [r7, #8]
 8002640:	23e0      	movs	r3, #224	; 0xe0
 8002642:	00db      	lsls	r3, r3, #3
 8002644:	60fb      	str	r3, [r7, #12]
 8002646:	2380      	movs	r3, #128	; 0x80
 8002648:	009b      	lsls	r3, r3, #2
 800264a:	61bb      	str	r3, [r7, #24]
 800264c:	3bfa      	subs	r3, #250	; 0xfa
 800264e:	3bff      	subs	r3, #255	; 0xff
 8002650:	62fb      	str	r3, [r7, #44]	; 0x2c
 8002652:	191b      	adds	r3, r3, r4
 8002654:	613e      	str	r6, [r7, #16]
 8002656:	617e      	str	r6, [r7, #20]
 8002658:	61fe      	str	r6, [r7, #28]
 800265a:	623e      	str	r6, [r7, #32]
 800265c:	627e      	str	r6, [r7, #36]	; 0x24
 800265e:	62be      	str	r6, [r7, #40]	; 0x28
 8002660:	633e      	str	r6, [r7, #48]	; 0x30
 8002662:	637b      	str	r3, [r7, #52]	; 0x34
 8002664:	f001 f9c8 	bl	80039f8 <HAL_SPI_Init>
 8002668:	1e06      	subs	r6, r0, #0
 800266a:	d001      	beq.n	8002670 <main+0x11c>
 800266c:	b672      	cpsid	i
 800266e:	e7fe      	b.n	800266e <main+0x11a>
 8002670:	a80d      	add	r0, sp, #52	; 0x34
 8002672:	f7ff fe37 	bl	80022e4 <led_init>
 8002676:	0028      	movs	r0, r5
 8002678:	f000 f8e6 	bl	8002848 <max2871Init>
 800267c:	0038      	movs	r0, r7
 800267e:	0029      	movs	r1, r5
 8002680:	f000 f9fe 	bl	8002a80 <max2871RegisterInit>
 8002684:	f7ff fd44 	bl	8002110 <i2c1MasterInit>
 8002688:	0029      	movs	r1, r5
 800268a:	a806      	add	r0, sp, #24
 800268c:	f7ff fe65 	bl	800235a <getFreqOutFromEeprom>
 8002690:	f000 fc76 	bl	8002f80 <HAL_GetTick>
 8002694:	9001      	str	r0, [sp, #4]
 8002696:	20a0      	movs	r0, #160	; 0xa0
 8002698:	0022      	movs	r2, r4
 800269a:	2120      	movs	r1, #32
 800269c:	05c0      	lsls	r0, r0, #23
 800269e:	f000 fd7f 	bl	80031a0 <HAL_GPIO_WritePin>
 80026a2:	2301      	movs	r3, #1
 80026a4:	27a0      	movs	r7, #160	; 0xa0
 80026a6:	425b      	negs	r3, r3
 80026a8:	9300      	str	r3, [sp, #0]
 80026aa:	05ff      	lsls	r7, r7, #23
 80026ac:	a80d      	add	r0, sp, #52	; 0x34
 80026ae:	f7ff fdeb 	bl	8002288 <led_enable_kalive>
 80026b2:	482d      	ldr	r0, [pc, #180]	; (8002768 <main+0x214>)
 80026b4:	f7ff fe68 	bl	8002388 <getFreqOut>
 80026b8:	0004      	movs	r4, r0
 80026ba:	4286      	cmp	r6, r0
 80026bc:	d01e      	beq.n	80026fc <main+0x1a8>
 80026be:	0002      	movs	r2, r0
 80026c0:	492a      	ldr	r1, [pc, #168]	; (800276c <main+0x218>)
 80026c2:	980a      	ldr	r0, [sp, #40]	; 0x28
 80026c4:	f001 fc0e 	bl	8003ee4 <siprintf>
 80026c8:	9e0a      	ldr	r6, [sp, #40]	; 0x28
 80026ca:	0030      	movs	r0, r6
 80026cc:	f7fd fd18 	bl	8000100 <strlen>
 80026d0:	b2c1      	uxtb	r1, r0
 80026d2:	0030      	movs	r0, r6
 80026d4:	f000 fb72 	bl	8002dbc <uart1_send_frame>
 80026d8:	2280      	movs	r2, #128	; 0x80
 80026da:	697b      	ldr	r3, [r7, #20]
 80026dc:	4393      	bics	r3, r2
 80026de:	617b      	str	r3, [r7, #20]
 80026e0:	f000 fc4e 	bl	8002f80 <HAL_GetTick>
 80026e4:	9001      	str	r0, [sp, #4]
 80026e6:	20a0      	movs	r0, #160	; 0xa0
 80026e8:	2200      	movs	r2, #0
 80026ea:	2120      	movs	r1, #32
 80026ec:	05c0      	lsls	r0, r0, #23
 80026ee:	f000 fd57 	bl	80031a0 <HAL_GPIO_WritePin>
 80026f2:	2301      	movs	r3, #1
 80026f4:	4a16      	ldr	r2, [pc, #88]	; (8002750 <main+0x1fc>)
 80026f6:	6951      	ldr	r1, [r2, #20]
 80026f8:	430b      	orrs	r3, r1
 80026fa:	6153      	str	r3, [r2, #20]
 80026fc:	f000 fc40 	bl	8002f80 <HAL_GetTick>
 8002700:	9b01      	ldr	r3, [sp, #4]
 8002702:	1ac0      	subs	r0, r0, r3
 8002704:	2864      	cmp	r0, #100	; 0x64
 8002706:	d919      	bls.n	800273c <main+0x1e8>
 8002708:	9b00      	ldr	r3, [sp, #0]
 800270a:	42a3      	cmp	r3, r4
 800270c:	d016      	beq.n	800273c <main+0x1e8>
 800270e:	2300      	movs	r3, #0
 8002710:	0029      	movs	r1, r5
 8002712:	4813      	ldr	r0, [pc, #76]	; (8002760 <main+0x20c>)
 8002714:	606b      	str	r3, [r5, #4]
 8002716:	602c      	str	r4, [r5, #0]
 8002718:	f000 fa08 	bl	8002b2c <max2871Program>
 800271c:	20a0      	movs	r0, #160	; 0xa0
 800271e:	2201      	movs	r2, #1
 8002720:	2120      	movs	r1, #32
 8002722:	05c0      	lsls	r0, r0, #23
 8002724:	f000 fd3c 	bl	80031a0 <HAL_GPIO_WritePin>
 8002728:	2101      	movs	r1, #1
 800272a:	4a09      	ldr	r2, [pc, #36]	; (8002750 <main+0x1fc>)
 800272c:	6953      	ldr	r3, [r2, #20]
 800272e:	438b      	bics	r3, r1
 8002730:	6153      	str	r3, [r2, #20]
 8002732:	2380      	movs	r3, #128	; 0x80
 8002734:	697a      	ldr	r2, [r7, #20]
 8002736:	4313      	orrs	r3, r2
 8002738:	617b      	str	r3, [r7, #20]
 800273a:	9400      	str	r4, [sp, #0]
 800273c:	0026      	movs	r6, r4
 800273e:	e7b5      	b.n	80026ac <main+0x158>
 8002740:	200000f0 	.word	0x200000f0
 8002744:	00f42400 	.word	0x00f42400
 8002748:	40021000 	.word	0x40021000
 800274c:	00000203 	.word	0x00000203
 8002750:	50000400 	.word	0x50000400
 8002754:	0000c040 	.word	0x0000c040
 8002758:	50000800 	.word	0x50000800
 800275c:	00009940 	.word	0x00009940
 8002760:	2000008c 	.word	0x2000008c
 8002764:	40003800 	.word	0x40003800
 8002768:	08e93060 	.word	0x08e93060
 800276c:	08004654 	.word	0x08004654

08002770 <getRegister2InitValue>:
 8002770:	2300      	movs	r3, #0
 8002772:	2201      	movs	r2, #1
 8002774:	2106      	movs	r1, #6
 8002776:	6343      	str	r3, [r0, #52]	; 0x34
 8002778:	63c3      	str	r3, [r0, #60]	; 0x3c
 800277a:	6403      	str	r3, [r0, #64]	; 0x40
 800277c:	6443      	str	r3, [r0, #68]	; 0x44
 800277e:	6483      	str	r3, [r0, #72]	; 0x48
 8002780:	64c3      	str	r3, [r0, #76]	; 0x4c
 8002782:	6503      	str	r3, [r0, #80]	; 0x50
 8002784:	6543      	str	r3, [r0, #84]	; 0x54
 8002786:	65c3      	str	r3, [r0, #92]	; 0x5c
 8002788:	6603      	str	r3, [r0, #96]	; 0x60
 800278a:	6643      	str	r3, [r0, #100]	; 0x64
 800278c:	3302      	adds	r3, #2
 800278e:	6302      	str	r2, [r0, #48]	; 0x30
 8002790:	6381      	str	r1, [r0, #56]	; 0x38
 8002792:	6582      	str	r2, [r0, #88]	; 0x58
 8002794:	6683      	str	r3, [r0, #104]	; 0x68
 8002796:	4801      	ldr	r0, [pc, #4]	; (800279c <getRegister2InitValue+0x2c>)
 8002798:	4770      	bx	lr
 800279a:	46c0      	nop			; (mov r8, r8)
 800279c:	98000042 	.word	0x98000042

080027a0 <getRegister3InitValue>:
 80027a0:	2300      	movs	r3, #0
 80027a2:	2201      	movs	r2, #1
 80027a4:	1d01      	adds	r1, r0, #4
 80027a6:	66c3      	str	r3, [r0, #108]	; 0x6c
 80027a8:	6703      	str	r3, [r0, #112]	; 0x70
 80027aa:	6742      	str	r2, [r0, #116]	; 0x74
 80027ac:	6783      	str	r3, [r0, #120]	; 0x78
 80027ae:	67c3      	str	r3, [r0, #124]	; 0x7c
 80027b0:	67ca      	str	r2, [r1, #124]	; 0x7c
 80027b2:	0002      	movs	r2, r0
 80027b4:	3208      	adds	r2, #8
 80027b6:	67d3      	str	r3, [r2, #124]	; 0x7c
 80027b8:	3088      	adds	r0, #136	; 0x88
 80027ba:	3303      	adds	r3, #3
 80027bc:	6003      	str	r3, [r0, #0]
 80027be:	4801      	ldr	r0, [pc, #4]	; (80027c4 <getRegister3InitValue+0x24>)
 80027c0:	4770      	bx	lr
 80027c2:	46c0      	nop			; (mov r8, r8)
 80027c4:	01008003 	.word	0x01008003

080027c8 <getRegister4InitValue>:
 80027c8:	0003      	movs	r3, r0
 80027ca:	2103      	movs	r1, #3
 80027cc:	b530      	push	{r4, r5, lr}
 80027ce:	0002      	movs	r2, r0
 80027d0:	0004      	movs	r4, r0
 80027d2:	338c      	adds	r3, #140	; 0x8c
 80027d4:	6019      	str	r1, [r3, #0]
 80027d6:	2300      	movs	r3, #0
 80027d8:	349c      	adds	r4, #156	; 0x9c
 80027da:	3290      	adds	r2, #144	; 0x90
 80027dc:	6013      	str	r3, [r2, #0]
 80027de:	6053      	str	r3, [r2, #4]
 80027e0:	6093      	str	r3, [r2, #8]
 80027e2:	60a3      	str	r3, [r4, #8]
 80027e4:	60e3      	str	r3, [r4, #12]
 80027e6:	6123      	str	r3, [r4, #16]
 80027e8:	6163      	str	r3, [r4, #20]
 80027ea:	0003      	movs	r3, r0
 80027ec:	2201      	movs	r2, #1
 80027ee:	4d07      	ldr	r5, [pc, #28]	; (800280c <getRegister4InitValue+0x44>)
 80027f0:	33b4      	adds	r3, #180	; 0xb4
 80027f2:	6022      	str	r2, [r4, #0]
 80027f4:	6065      	str	r5, [r4, #4]
 80027f6:	605a      	str	r2, [r3, #4]
 80027f8:	1892      	adds	r2, r2, r2
 80027fa:	609a      	str	r2, [r3, #8]
 80027fc:	3202      	adds	r2, #2
 80027fe:	6019      	str	r1, [r3, #0]
 8002800:	60da      	str	r2, [r3, #12]
 8002802:	6883      	ldr	r3, [r0, #8]
 8002804:	4802      	ldr	r0, [pc, #8]	; (8002810 <getRegister4InitValue+0x48>)
 8002806:	051b      	lsls	r3, r3, #20
 8002808:	4318      	orrs	r0, r3
 800280a:	bd30      	pop	{r4, r5, pc}
 800280c:	000030ff 	.word	0x000030ff
 8002810:	638ff0f4 	.word	0x638ff0f4

08002814 <getRegister5InitValue>:
 8002814:	0003      	movs	r3, r0
 8002816:	2203      	movs	r2, #3
 8002818:	33c4      	adds	r3, #196	; 0xc4
 800281a:	601a      	str	r2, [r3, #0]
 800281c:	0002      	movs	r2, r0
 800281e:	2300      	movs	r3, #0
 8002820:	0001      	movs	r1, r0
 8002822:	32c8      	adds	r2, #200	; 0xc8
 8002824:	6013      	str	r3, [r2, #0]
 8002826:	2201      	movs	r2, #1
 8002828:	31cc      	adds	r1, #204	; 0xcc
 800282a:	600a      	str	r2, [r1, #0]
 800282c:	604a      	str	r2, [r1, #4]
 800282e:	0002      	movs	r2, r0
 8002830:	32d4      	adds	r2, #212	; 0xd4
 8002832:	6013      	str	r3, [r2, #0]
 8002834:	6053      	str	r3, [r2, #4]
 8002836:	6093      	str	r3, [r2, #8]
 8002838:	30e0      	adds	r0, #224	; 0xe0
 800283a:	3305      	adds	r3, #5
 800283c:	6003      	str	r3, [r0, #0]
 800283e:	4801      	ldr	r0, [pc, #4]	; (8002844 <getRegister5InitValue+0x30>)
 8002840:	4770      	bx	lr
 8002842:	46c0      	nop			; (mov r8, r8)
 8002844:	61400005 	.word	0x61400005

08002848 <max2871Init>:
 8002848:	2200      	movs	r2, #0
 800284a:	2300      	movs	r3, #0
 800284c:	6002      	str	r2, [r0, #0]
 800284e:	6043      	str	r3, [r0, #4]
 8002850:	2300      	movs	r3, #0
 8002852:	6083      	str	r3, [r0, #8]
 8002854:	4770      	bx	lr

08002856 <max2871Write>:
 8002856:	b573      	push	{r0, r1, r4, r5, r6, lr}
 8002858:	26a0      	movs	r6, #160	; 0xa0
 800285a:	0005      	movs	r5, r0
 800285c:	ac01      	add	r4, sp, #4
 800285e:	0e0b      	lsrs	r3, r1, #24
 8002860:	05f6      	lsls	r6, r6, #23
 8002862:	7023      	strb	r3, [r4, #0]
 8002864:	0c0b      	lsrs	r3, r1, #16
 8002866:	0030      	movs	r0, r6
 8002868:	7063      	strb	r3, [r4, #1]
 800286a:	70e1      	strb	r1, [r4, #3]
 800286c:	0a0b      	lsrs	r3, r1, #8
 800286e:	2200      	movs	r2, #0
 8002870:	2104      	movs	r1, #4
 8002872:	70a3      	strb	r3, [r4, #2]
 8002874:	f000 fc94 	bl	80031a0 <HAL_GPIO_WritePin>
 8002878:	0030      	movs	r0, r6
 800287a:	2200      	movs	r2, #0
 800287c:	2102      	movs	r1, #2
 800287e:	f000 fc8f 	bl	80031a0 <HAL_GPIO_WritePin>
 8002882:	2001      	movs	r0, #1
 8002884:	f000 fb82 	bl	8002f8c <HAL_Delay>
 8002888:	2364      	movs	r3, #100	; 0x64
 800288a:	0021      	movs	r1, r4
 800288c:	2204      	movs	r2, #4
 800288e:	0028      	movs	r0, r5
 8002890:	f001 f92a 	bl	8003ae8 <HAL_SPI_Transmit>
 8002894:	2001      	movs	r0, #1
 8002896:	f000 fb79 	bl	8002f8c <HAL_Delay>
 800289a:	0030      	movs	r0, r6
 800289c:	2201      	movs	r2, #1
 800289e:	2104      	movs	r1, #4
 80028a0:	f000 fc7e 	bl	80031a0 <HAL_GPIO_WritePin>
 80028a4:	0030      	movs	r0, r6
 80028a6:	2201      	movs	r2, #1
 80028a8:	2102      	movs	r1, #2
 80028aa:	f000 fc79 	bl	80031a0 <HAL_GPIO_WritePin>
 80028ae:	2032      	movs	r0, #50	; 0x32
 80028b0:	f000 fb6c 	bl	8002f8c <HAL_Delay>
 80028b4:	bd73      	pop	{r0, r1, r4, r5, r6, pc}
	...

080028b8 <max2871CalculateRegister0Values>:
 80028b8:	b573      	push	{r0, r1, r4, r5, r6, lr}
 80028ba:	6803      	ldr	r3, [r0, #0]
 80028bc:	6844      	ldr	r4, [r0, #4]
 80028be:	9300      	str	r3, [sp, #0]
 80028c0:	9401      	str	r4, [sp, #4]
 80028c2:	9b01      	ldr	r3, [sp, #4]
 80028c4:	0006      	movs	r6, r0
 80028c6:	2b00      	cmp	r3, #0
 80028c8:	d103      	bne.n	80028d2 <max2871CalculateRegister0Values+0x1a>
 80028ca:	4b5d      	ldr	r3, [pc, #372]	; (8002a40 <max2871CalculateRegister0Values+0x188>)
 80028cc:	9a00      	ldr	r2, [sp, #0]
 80028ce:	429a      	cmp	r2, r3
 80028d0:	d91e      	bls.n	8002910 <max2871CalculateRegister0Values+0x58>
 80028d2:	9800      	ldr	r0, [sp, #0]
 80028d4:	9901      	ldr	r1, [sp, #4]
 80028d6:	2300      	movs	r3, #0
 80028d8:	4a5a      	ldr	r2, [pc, #360]	; (8002a44 <max2871CalculateRegister0Values+0x18c>)
 80028da:	60b3      	str	r3, [r6, #8]
 80028dc:	2300      	movs	r3, #0
 80028de:	f7fd fceb 	bl	80002b8 <__aeabi_uldivmod>
 80028e2:	2300      	movs	r3, #0
 80028e4:	4a57      	ldr	r2, [pc, #348]	; (8002a44 <max2871CalculateRegister0Values+0x18c>)
 80028e6:	6130      	str	r0, [r6, #16]
 80028e8:	9800      	ldr	r0, [sp, #0]
 80028ea:	9901      	ldr	r1, [sp, #4]
 80028ec:	f7fd fce4 	bl	80002b8 <__aeabi_uldivmod>
 80028f0:	0010      	movs	r0, r2
 80028f2:	0019      	movs	r1, r3
 80028f4:	f7fd fd1e 	bl	8000334 <__aeabi_ul2d>
 80028f8:	2200      	movs	r2, #0
 80028fa:	4b53      	ldr	r3, [pc, #332]	; (8002a48 <max2871CalculateRegister0Values+0x190>)
 80028fc:	f7fe f938 	bl	8000b70 <__aeabi_ddiv>
 8002900:	2200      	movs	r2, #0
 8002902:	4b52      	ldr	r3, [pc, #328]	; (8002a4c <max2871CalculateRegister0Values+0x194>)
 8002904:	f7fe fd36 	bl	8001374 <__aeabi_dmul>
 8002908:	f7fd fcf6 	bl	80002f8 <__aeabi_d2uiz>
 800290c:	6170      	str	r0, [r6, #20]
 800290e:	bd73      	pop	{r0, r1, r4, r5, r6, pc}
 8002910:	2301      	movs	r3, #1
 8002912:	9800      	ldr	r0, [sp, #0]
 8002914:	9901      	ldr	r1, [sp, #4]
 8002916:	4a4e      	ldr	r2, [pc, #312]	; (8002a50 <max2871CalculateRegister0Values+0x198>)
 8002918:	425b      	negs	r3, r3
 800291a:	1880      	adds	r0, r0, r2
 800291c:	4159      	adcs	r1, r3
 800291e:	1e0a      	subs	r2, r1, #0
 8002920:	d116      	bne.n	8002950 <max2871CalculateRegister0Values+0x98>
 8002922:	4b4c      	ldr	r3, [pc, #304]	; (8002a54 <max2871CalculateRegister0Values+0x19c>)
 8002924:	4298      	cmp	r0, r3
 8002926:	d813      	bhi.n	8002950 <max2871CalculateRegister0Values+0x98>
 8002928:	9c00      	ldr	r4, [sp, #0]
 800292a:	9d01      	ldr	r5, [sp, #4]
 800292c:	2301      	movs	r3, #1
 800292e:	0022      	movs	r2, r4
 8002930:	60b3      	str	r3, [r6, #8]
 8002932:	002b      	movs	r3, r5
 8002934:	18a4      	adds	r4, r4, r2
 8002936:	415d      	adcs	r5, r3
 8002938:	2300      	movs	r3, #0
 800293a:	4a42      	ldr	r2, [pc, #264]	; (8002a44 <max2871CalculateRegister0Values+0x18c>)
 800293c:	0020      	movs	r0, r4
 800293e:	0029      	movs	r1, r5
 8002940:	f7fd fcba 	bl	80002b8 <__aeabi_uldivmod>
 8002944:	2300      	movs	r3, #0
 8002946:	6130      	str	r0, [r6, #16]
 8002948:	0029      	movs	r1, r5
 800294a:	0020      	movs	r0, r4
 800294c:	4a3d      	ldr	r2, [pc, #244]	; (8002a44 <max2871CalculateRegister0Values+0x18c>)
 800294e:	e7cd      	b.n	80028ec <max2871CalculateRegister0Values+0x34>
 8002950:	2301      	movs	r3, #1
 8002952:	9800      	ldr	r0, [sp, #0]
 8002954:	9901      	ldr	r1, [sp, #4]
 8002956:	4a40      	ldr	r2, [pc, #256]	; (8002a58 <max2871CalculateRegister0Values+0x1a0>)
 8002958:	425b      	negs	r3, r3
 800295a:	1880      	adds	r0, r0, r2
 800295c:	4159      	adcs	r1, r3
 800295e:	1e0a      	subs	r2, r1, #0
 8002960:	d10c      	bne.n	800297c <max2871CalculateRegister0Values+0xc4>
 8002962:	4b3e      	ldr	r3, [pc, #248]	; (8002a5c <max2871CalculateRegister0Values+0x1a4>)
 8002964:	4298      	cmp	r0, r3
 8002966:	d809      	bhi.n	800297c <max2871CalculateRegister0Values+0xc4>
 8002968:	2302      	movs	r3, #2
 800296a:	9a01      	ldr	r2, [sp, #4]
 800296c:	60b3      	str	r3, [r6, #8]
 800296e:	9b00      	ldr	r3, [sp, #0]
 8002970:	0095      	lsls	r5, r2, #2
 8002972:	0f9b      	lsrs	r3, r3, #30
 8002974:	431d      	orrs	r5, r3
 8002976:	9b00      	ldr	r3, [sp, #0]
 8002978:	009c      	lsls	r4, r3, #2
 800297a:	e7dd      	b.n	8002938 <max2871CalculateRegister0Values+0x80>
 800297c:	2301      	movs	r3, #1
 800297e:	9800      	ldr	r0, [sp, #0]
 8002980:	9901      	ldr	r1, [sp, #4]
 8002982:	4a37      	ldr	r2, [pc, #220]	; (8002a60 <max2871CalculateRegister0Values+0x1a8>)
 8002984:	425b      	negs	r3, r3
 8002986:	1880      	adds	r0, r0, r2
 8002988:	4159      	adcs	r1, r3
 800298a:	1e0a      	subs	r2, r1, #0
 800298c:	d10c      	bne.n	80029a8 <max2871CalculateRegister0Values+0xf0>
 800298e:	4b35      	ldr	r3, [pc, #212]	; (8002a64 <max2871CalculateRegister0Values+0x1ac>)
 8002990:	4298      	cmp	r0, r3
 8002992:	d809      	bhi.n	80029a8 <max2871CalculateRegister0Values+0xf0>
 8002994:	2303      	movs	r3, #3
 8002996:	9a01      	ldr	r2, [sp, #4]
 8002998:	60b3      	str	r3, [r6, #8]
 800299a:	9b00      	ldr	r3, [sp, #0]
 800299c:	00d5      	lsls	r5, r2, #3
 800299e:	0f5b      	lsrs	r3, r3, #29
 80029a0:	431d      	orrs	r5, r3
 80029a2:	9b00      	ldr	r3, [sp, #0]
 80029a4:	00dc      	lsls	r4, r3, #3
 80029a6:	e7c7      	b.n	8002938 <max2871CalculateRegister0Values+0x80>
 80029a8:	2301      	movs	r3, #1
 80029aa:	9800      	ldr	r0, [sp, #0]
 80029ac:	9901      	ldr	r1, [sp, #4]
 80029ae:	4a2e      	ldr	r2, [pc, #184]	; (8002a68 <max2871CalculateRegister0Values+0x1b0>)
 80029b0:	425b      	negs	r3, r3
 80029b2:	1880      	adds	r0, r0, r2
 80029b4:	4159      	adcs	r1, r3
 80029b6:	1e0a      	subs	r2, r1, #0
 80029b8:	d10c      	bne.n	80029d4 <max2871CalculateRegister0Values+0x11c>
 80029ba:	4b2c      	ldr	r3, [pc, #176]	; (8002a6c <max2871CalculateRegister0Values+0x1b4>)
 80029bc:	4298      	cmp	r0, r3
 80029be:	d809      	bhi.n	80029d4 <max2871CalculateRegister0Values+0x11c>
 80029c0:	2304      	movs	r3, #4
 80029c2:	9a01      	ldr	r2, [sp, #4]
 80029c4:	60b3      	str	r3, [r6, #8]
 80029c6:	9b00      	ldr	r3, [sp, #0]
 80029c8:	0115      	lsls	r5, r2, #4
 80029ca:	0f1b      	lsrs	r3, r3, #28
 80029cc:	431d      	orrs	r5, r3
 80029ce:	9b00      	ldr	r3, [sp, #0]
 80029d0:	011c      	lsls	r4, r3, #4
 80029d2:	e7b1      	b.n	8002938 <max2871CalculateRegister0Values+0x80>
 80029d4:	2301      	movs	r3, #1
 80029d6:	9800      	ldr	r0, [sp, #0]
 80029d8:	9901      	ldr	r1, [sp, #4]
 80029da:	4a25      	ldr	r2, [pc, #148]	; (8002a70 <max2871CalculateRegister0Values+0x1b8>)
 80029dc:	425b      	negs	r3, r3
 80029de:	1880      	adds	r0, r0, r2
 80029e0:	4159      	adcs	r1, r3
 80029e2:	1e0a      	subs	r2, r1, #0
 80029e4:	d10c      	bne.n	8002a00 <max2871CalculateRegister0Values+0x148>
 80029e6:	4b23      	ldr	r3, [pc, #140]	; (8002a74 <max2871CalculateRegister0Values+0x1bc>)
 80029e8:	4298      	cmp	r0, r3
 80029ea:	d809      	bhi.n	8002a00 <max2871CalculateRegister0Values+0x148>
 80029ec:	2305      	movs	r3, #5
 80029ee:	9a01      	ldr	r2, [sp, #4]
 80029f0:	60b3      	str	r3, [r6, #8]
 80029f2:	9b00      	ldr	r3, [sp, #0]
 80029f4:	0155      	lsls	r5, r2, #5
 80029f6:	0edb      	lsrs	r3, r3, #27
 80029f8:	431d      	orrs	r5, r3
 80029fa:	9b00      	ldr	r3, [sp, #0]
 80029fc:	015c      	lsls	r4, r3, #5
 80029fe:	e79b      	b.n	8002938 <max2871CalculateRegister0Values+0x80>
 8002a00:	2301      	movs	r3, #1
 8002a02:	9800      	ldr	r0, [sp, #0]
 8002a04:	9901      	ldr	r1, [sp, #4]
 8002a06:	4a1c      	ldr	r2, [pc, #112]	; (8002a78 <max2871CalculateRegister0Values+0x1c0>)
 8002a08:	425b      	negs	r3, r3
 8002a0a:	1880      	adds	r0, r0, r2
 8002a0c:	4159      	adcs	r1, r3
 8002a0e:	1e0a      	subs	r2, r1, #0
 8002a10:	d10c      	bne.n	8002a2c <max2871CalculateRegister0Values+0x174>
 8002a12:	4b1a      	ldr	r3, [pc, #104]	; (8002a7c <max2871CalculateRegister0Values+0x1c4>)
 8002a14:	4298      	cmp	r0, r3
 8002a16:	d809      	bhi.n	8002a2c <max2871CalculateRegister0Values+0x174>
 8002a18:	2306      	movs	r3, #6
 8002a1a:	9a01      	ldr	r2, [sp, #4]
 8002a1c:	60b3      	str	r3, [r6, #8]
 8002a1e:	9b00      	ldr	r3, [sp, #0]
 8002a20:	0195      	lsls	r5, r2, #6
 8002a22:	0e9b      	lsrs	r3, r3, #26
 8002a24:	431d      	orrs	r5, r3
 8002a26:	9b00      	ldr	r3, [sp, #0]
 8002a28:	019c      	lsls	r4, r3, #6
 8002a2a:	e785      	b.n	8002938 <max2871CalculateRegister0Values+0x80>
 8002a2c:	2307      	movs	r3, #7
 8002a2e:	9a01      	ldr	r2, [sp, #4]
 8002a30:	60b3      	str	r3, [r6, #8]
 8002a32:	9b00      	ldr	r3, [sp, #0]
 8002a34:	01d5      	lsls	r5, r2, #7
 8002a36:	0e5b      	lsrs	r3, r3, #25
 8002a38:	431d      	orrs	r5, r3
 8002a3a:	9b00      	ldr	r3, [sp, #0]
 8002a3c:	01dc      	lsls	r4, r3, #7
 8002a3e:	e77b      	b.n	8002938 <max2871CalculateRegister0Values+0x80>
 8002a40:	b2d05dff 	.word	0xb2d05dff
 8002a44:	02faf080 	.word	0x02faf080
 8002a48:	4187d784 	.word	0x4187d784
 8002a4c:	40af4000 	.word	0x40af4000
 8002a50:	a697d100 	.word	0xa697d100
 8002a54:	59682eff 	.word	0x59682eff
 8002a58:	d34be880 	.word	0xd34be880
 8002a5c:	2cb4177f 	.word	0x2cb4177f
 8002a60:	e9a5f440 	.word	0xe9a5f440
 8002a64:	165a0bbf 	.word	0x165a0bbf
 8002a68:	f4d2fa20 	.word	0xf4d2fa20
 8002a6c:	0b2d05df 	.word	0x0b2d05df
 8002a70:	fa697d10 	.word	0xfa697d10
 8002a74:	059682ef 	.word	0x059682ef
 8002a78:	fd34be88 	.word	0xfd34be88
 8002a7c:	02cb4177 	.word	0x02cb4177

08002a80 <max2871RegisterInit>:
 8002a80:	2302      	movs	r3, #2
 8002a82:	b5f7      	push	{r0, r1, r2, r4, r5, r6, r7, lr}
 8002a84:	0005      	movs	r5, r0
 8002a86:	000c      	movs	r4, r1
 8002a88:	9301      	str	r3, [sp, #4]
 8002a8a:	0020      	movs	r0, r4
 8002a8c:	f7ff fec2 	bl	8002814 <getRegister5InitValue>
 8002a90:	0001      	movs	r1, r0
 8002a92:	0028      	movs	r0, r5
 8002a94:	f7ff fedf 	bl	8002856 <max2871Write>
 8002a98:	2014      	movs	r0, #20
 8002a9a:	f000 fa77 	bl	8002f8c <HAL_Delay>
 8002a9e:	0020      	movs	r0, r4
 8002aa0:	f7ff fe92 	bl	80027c8 <getRegister4InitValue>
 8002aa4:	0001      	movs	r1, r0
 8002aa6:	0028      	movs	r0, r5
 8002aa8:	f7ff fed5 	bl	8002856 <max2871Write>
 8002aac:	0020      	movs	r0, r4
 8002aae:	f7ff fe77 	bl	80027a0 <getRegister3InitValue>
 8002ab2:	0001      	movs	r1, r0
 8002ab4:	0028      	movs	r0, r5
 8002ab6:	f7ff fece 	bl	8002856 <max2871Write>
 8002aba:	0020      	movs	r0, r4
 8002abc:	f7ff fe58 	bl	8002770 <getRegister2InitValue>
 8002ac0:	0001      	movs	r1, r0
 8002ac2:	0028      	movs	r0, r5
 8002ac4:	f7ff fec7 	bl	8002856 <max2871Write>
 8002ac8:	2303      	movs	r3, #3
 8002aca:	61e3      	str	r3, [r4, #28]
 8002acc:	23fa      	movs	r3, #250	; 0xfa
 8002ace:	2600      	movs	r6, #0
 8002ad0:	2701      	movs	r7, #1
 8002ad2:	011b      	lsls	r3, r3, #4
 8002ad4:	62a3      	str	r3, [r4, #40]	; 0x28
 8002ad6:	0028      	movs	r0, r5
 8002ad8:	4909      	ldr	r1, [pc, #36]	; (8002b00 <max2871RegisterInit+0x80>)
 8002ada:	6226      	str	r6, [r4, #32]
 8002adc:	6267      	str	r7, [r4, #36]	; 0x24
 8002ade:	62e7      	str	r7, [r4, #44]	; 0x2c
 8002ae0:	f7ff feb9 	bl	8002856 <max2871Write>
 8002ae4:	0031      	movs	r1, r6
 8002ae6:	0028      	movs	r0, r5
 8002ae8:	60e6      	str	r6, [r4, #12]
 8002aea:	6126      	str	r6, [r4, #16]
 8002aec:	6166      	str	r6, [r4, #20]
 8002aee:	61a6      	str	r6, [r4, #24]
 8002af0:	f7ff feb1 	bl	8002856 <max2871Write>
 8002af4:	9b01      	ldr	r3, [sp, #4]
 8002af6:	42bb      	cmp	r3, r7
 8002af8:	d100      	bne.n	8002afc <max2871RegisterInit+0x7c>
 8002afa:	bdf7      	pop	{r0, r1, r2, r4, r5, r6, r7, pc}
 8002afc:	9701      	str	r7, [sp, #4]
 8002afe:	e7c4      	b.n	8002a8a <max2871RegisterInit+0xa>
 8002b00:	6000fd01 	.word	0x6000fd01

08002b04 <waitForLock>:
 8002b04:	b570      	push	{r4, r5, r6, lr}
 8002b06:	f000 fa3b 	bl	8002f80 <HAL_GetTick>
 8002b0a:	26a0      	movs	r6, #160	; 0xa0
 8002b0c:	25fa      	movs	r5, #250	; 0xfa
 8002b0e:	0004      	movs	r4, r0
 8002b10:	05f6      	lsls	r6, r6, #23
 8002b12:	00ed      	lsls	r5, r5, #3
 8002b14:	2140      	movs	r1, #64	; 0x40
 8002b16:	0030      	movs	r0, r6
 8002b18:	f000 fb3c 	bl	8003194 <HAL_GPIO_ReadPin>
 8002b1c:	2801      	cmp	r0, #1
 8002b1e:	d0f9      	beq.n	8002b14 <waitForLock+0x10>
 8002b20:	f000 fa2e 	bl	8002f80 <HAL_GetTick>
 8002b24:	1b00      	subs	r0, r0, r4
 8002b26:	42a8      	cmp	r0, r5
 8002b28:	d3f4      	bcc.n	8002b14 <waitForLock+0x10>
 8002b2a:	bd70      	pop	{r4, r5, r6, pc}

08002b2c <max2871Program>:
 8002b2c:	b570      	push	{r4, r5, r6, lr}
 8002b2e:	000d      	movs	r5, r1
 8002b30:	0004      	movs	r4, r0
 8002b32:	0008      	movs	r0, r1
 8002b34:	f7ff fec0 	bl	80028b8 <max2871CalculateRegister0Values>
 8002b38:	68eb      	ldr	r3, [r5, #12]
 8002b3a:	0020      	movs	r0, r4
 8002b3c:	07d9      	lsls	r1, r3, #31
 8002b3e:	692b      	ldr	r3, [r5, #16]
 8002b40:	03db      	lsls	r3, r3, #15
 8002b42:	4319      	orrs	r1, r3
 8002b44:	69ab      	ldr	r3, [r5, #24]
 8002b46:	4319      	orrs	r1, r3
 8002b48:	696b      	ldr	r3, [r5, #20]
 8002b4a:	00db      	lsls	r3, r3, #3
 8002b4c:	4319      	orrs	r1, r3
 8002b4e:	f7ff fe82 	bl	8002856 <max2871Write>
 8002b52:	f7ff ffd7 	bl	8002b04 <waitForLock>
 8002b56:	002b      	movs	r3, r5
 8002b58:	338c      	adds	r3, #140	; 0x8c
 8002b5a:	6819      	ldr	r1, [r3, #0]
 8002b5c:	3304      	adds	r3, #4
 8002b5e:	681b      	ldr	r3, [r3, #0]
 8002b60:	0749      	lsls	r1, r1, #29
 8002b62:	071b      	lsls	r3, r3, #28
 8002b64:	4319      	orrs	r1, r3
 8002b66:	002b      	movs	r3, r5
 8002b68:	33c0      	adds	r3, #192	; 0xc0
 8002b6a:	681b      	ldr	r3, [r3, #0]
 8002b6c:	0020      	movs	r0, r4
 8002b6e:	4319      	orrs	r1, r3
 8002b70:	002b      	movs	r3, r5
 8002b72:	3394      	adds	r3, #148	; 0x94
 8002b74:	681b      	ldr	r3, [r3, #0]
 8002b76:	06db      	lsls	r3, r3, #27
 8002b78:	4319      	orrs	r1, r3
 8002b7a:	002b      	movs	r3, r5
 8002b7c:	3398      	adds	r3, #152	; 0x98
 8002b7e:	681b      	ldr	r3, [r3, #0]
 8002b80:	069b      	lsls	r3, r3, #26
 8002b82:	4319      	orrs	r1, r3
 8002b84:	002b      	movs	r3, r5
 8002b86:	339c      	adds	r3, #156	; 0x9c
 8002b88:	681b      	ldr	r3, [r3, #0]
 8002b8a:	05db      	lsls	r3, r3, #23
 8002b8c:	4319      	orrs	r1, r3
 8002b8e:	68ab      	ldr	r3, [r5, #8]
 8002b90:	051b      	lsls	r3, r3, #20
 8002b92:	4319      	orrs	r1, r3
 8002b94:	002b      	movs	r3, r5
 8002b96:	33a0      	adds	r3, #160	; 0xa0
 8002b98:	681b      	ldr	r3, [r3, #0]
 8002b9a:	031b      	lsls	r3, r3, #12
 8002b9c:	4319      	orrs	r1, r3
 8002b9e:	002b      	movs	r3, r5
 8002ba0:	33a4      	adds	r3, #164	; 0xa4
 8002ba2:	681b      	ldr	r3, [r3, #0]
 8002ba4:	02db      	lsls	r3, r3, #11
 8002ba6:	4319      	orrs	r1, r3
 8002ba8:	002b      	movs	r3, r5
 8002baa:	33a8      	adds	r3, #168	; 0xa8
 8002bac:	681b      	ldr	r3, [r3, #0]
 8002bae:	029b      	lsls	r3, r3, #10
 8002bb0:	4319      	orrs	r1, r3
 8002bb2:	002b      	movs	r3, r5
 8002bb4:	33ac      	adds	r3, #172	; 0xac
 8002bb6:	681b      	ldr	r3, [r3, #0]
 8002bb8:	025b      	lsls	r3, r3, #9
 8002bba:	4319      	orrs	r1, r3
 8002bbc:	002b      	movs	r3, r5
 8002bbe:	33b0      	adds	r3, #176	; 0xb0
 8002bc0:	681b      	ldr	r3, [r3, #0]
 8002bc2:	021b      	lsls	r3, r3, #8
 8002bc4:	4319      	orrs	r1, r3
 8002bc6:	002b      	movs	r3, r5
 8002bc8:	33b4      	adds	r3, #180	; 0xb4
 8002bca:	681b      	ldr	r3, [r3, #0]
 8002bcc:	019b      	lsls	r3, r3, #6
 8002bce:	4319      	orrs	r1, r3
 8002bd0:	002b      	movs	r3, r5
 8002bd2:	33b8      	adds	r3, #184	; 0xb8
 8002bd4:	681b      	ldr	r3, [r3, #0]
 8002bd6:	35bc      	adds	r5, #188	; 0xbc
 8002bd8:	015b      	lsls	r3, r3, #5
 8002bda:	4319      	orrs	r1, r3
 8002bdc:	682b      	ldr	r3, [r5, #0]
 8002bde:	00db      	lsls	r3, r3, #3
 8002be0:	4319      	orrs	r1, r3
 8002be2:	f7ff fe38 	bl	8002856 <max2871Write>
 8002be6:	bd70      	pop	{r4, r5, r6, pc}

08002be8 <HAL_MspInit>:
 8002be8:	2001      	movs	r0, #1
 8002bea:	4b0a      	ldr	r3, [pc, #40]	; (8002c14 <HAL_MspInit+0x2c>)
 8002bec:	b082      	sub	sp, #8
 8002bee:	6c19      	ldr	r1, [r3, #64]	; 0x40
 8002bf0:	4301      	orrs	r1, r0
 8002bf2:	6419      	str	r1, [r3, #64]	; 0x40
 8002bf4:	2180      	movs	r1, #128	; 0x80
 8002bf6:	6c1a      	ldr	r2, [r3, #64]	; 0x40
 8002bf8:	0549      	lsls	r1, r1, #21
 8002bfa:	4002      	ands	r2, r0
 8002bfc:	9200      	str	r2, [sp, #0]
 8002bfe:	9a00      	ldr	r2, [sp, #0]
 8002c00:	6bda      	ldr	r2, [r3, #60]	; 0x3c
 8002c02:	430a      	orrs	r2, r1
 8002c04:	63da      	str	r2, [r3, #60]	; 0x3c
 8002c06:	6bdb      	ldr	r3, [r3, #60]	; 0x3c
 8002c08:	400b      	ands	r3, r1
 8002c0a:	9301      	str	r3, [sp, #4]
 8002c0c:	9b01      	ldr	r3, [sp, #4]
 8002c0e:	b002      	add	sp, #8
 8002c10:	4770      	bx	lr
 8002c12:	46c0      	nop			; (mov r8, r8)
 8002c14:	40021000 	.word	0x40021000

08002c18 <HAL_SPI_MspInit>:
 8002c18:	b530      	push	{r4, r5, lr}
 8002c1a:	0004      	movs	r4, r0
 8002c1c:	b089      	sub	sp, #36	; 0x24
 8002c1e:	2214      	movs	r2, #20
 8002c20:	2100      	movs	r1, #0
 8002c22:	a803      	add	r0, sp, #12
 8002c24:	f001 f861 	bl	8003cea <memset>
 8002c28:	4b15      	ldr	r3, [pc, #84]	; (8002c80 <HAL_SPI_MspInit+0x68>)
 8002c2a:	6822      	ldr	r2, [r4, #0]
 8002c2c:	429a      	cmp	r2, r3
 8002c2e:	d125      	bne.n	8002c7c <HAL_SPI_MspInit+0x64>
 8002c30:	2080      	movs	r0, #128	; 0x80
 8002c32:	4b14      	ldr	r3, [pc, #80]	; (8002c84 <HAL_SPI_MspInit+0x6c>)
 8002c34:	2401      	movs	r4, #1
 8002c36:	6bd9      	ldr	r1, [r3, #60]	; 0x3c
 8002c38:	01c0      	lsls	r0, r0, #7
 8002c3a:	4301      	orrs	r1, r0
 8002c3c:	63d9      	str	r1, [r3, #60]	; 0x3c
 8002c3e:	6bda      	ldr	r2, [r3, #60]	; 0x3c
 8002c40:	2502      	movs	r5, #2
 8002c42:	4002      	ands	r2, r0
 8002c44:	20a0      	movs	r0, #160	; 0xa0
 8002c46:	9201      	str	r2, [sp, #4]
 8002c48:	9a01      	ldr	r2, [sp, #4]
 8002c4a:	6b5a      	ldr	r2, [r3, #52]	; 0x34
 8002c4c:	a903      	add	r1, sp, #12
 8002c4e:	4322      	orrs	r2, r4
 8002c50:	635a      	str	r2, [r3, #52]	; 0x34
 8002c52:	6b5b      	ldr	r3, [r3, #52]	; 0x34
 8002c54:	05c0      	lsls	r0, r0, #23
 8002c56:	4023      	ands	r3, r4
 8002c58:	9302      	str	r3, [sp, #8]
 8002c5a:	9b02      	ldr	r3, [sp, #8]
 8002c5c:	9403      	str	r4, [sp, #12]
 8002c5e:	9504      	str	r5, [sp, #16]
 8002c60:	f000 f9ea 	bl	8003038 <HAL_GPIO_Init>
 8002c64:	2310      	movs	r3, #16
 8002c66:	20a0      	movs	r0, #160	; 0xa0
 8002c68:	9303      	str	r3, [sp, #12]
 8002c6a:	2300      	movs	r3, #0
 8002c6c:	a903      	add	r1, sp, #12
 8002c6e:	05c0      	lsls	r0, r0, #23
 8002c70:	9504      	str	r5, [sp, #16]
 8002c72:	9305      	str	r3, [sp, #20]
 8002c74:	9306      	str	r3, [sp, #24]
 8002c76:	9407      	str	r4, [sp, #28]
 8002c78:	f000 f9de 	bl	8003038 <HAL_GPIO_Init>
 8002c7c:	b009      	add	sp, #36	; 0x24
 8002c7e:	bd30      	pop	{r4, r5, pc}
 8002c80:	40003800 	.word	0x40003800
 8002c84:	40021000 	.word	0x40021000

08002c88 <NMI_Handler>:
 8002c88:	e7fe      	b.n	8002c88 <NMI_Handler>

08002c8a <HardFault_Handler>:
 8002c8a:	e7fe      	b.n	8002c8a <HardFault_Handler>

08002c8c <SVC_Handler>:
 8002c8c:	4770      	bx	lr

08002c8e <PendSV_Handler>:
 8002c8e:	4770      	bx	lr

08002c90 <SysTick_Handler>:
 8002c90:	b510      	push	{r4, lr}
 8002c92:	f000 f969 	bl	8002f68 <HAL_IncTick>
 8002c96:	bd10      	pop	{r4, pc}

08002c98 <_sbrk>:
 8002c98:	4a0b      	ldr	r2, [pc, #44]	; (8002cc8 <_sbrk+0x30>)
 8002c9a:	490c      	ldr	r1, [pc, #48]	; (8002ccc <_sbrk+0x34>)
 8002c9c:	0003      	movs	r3, r0
 8002c9e:	1a89      	subs	r1, r1, r2
 8002ca0:	4a0b      	ldr	r2, [pc, #44]	; (8002cd0 <_sbrk+0x38>)
 8002ca2:	b510      	push	{r4, lr}
 8002ca4:	6810      	ldr	r0, [r2, #0]
 8002ca6:	2800      	cmp	r0, #0
 8002ca8:	d101      	bne.n	8002cae <_sbrk+0x16>
 8002caa:	480a      	ldr	r0, [pc, #40]	; (8002cd4 <_sbrk+0x3c>)
 8002cac:	6010      	str	r0, [r2, #0]
 8002cae:	6810      	ldr	r0, [r2, #0]
 8002cb0:	18c3      	adds	r3, r0, r3
 8002cb2:	428b      	cmp	r3, r1
 8002cb4:	d906      	bls.n	8002cc4 <_sbrk+0x2c>
 8002cb6:	f000 ffdb 	bl	8003c70 <__errno>
 8002cba:	230c      	movs	r3, #12
 8002cbc:	6003      	str	r3, [r0, #0]
 8002cbe:	2001      	movs	r0, #1
 8002cc0:	4240      	negs	r0, r0
 8002cc2:	bd10      	pop	{r4, pc}
 8002cc4:	6013      	str	r3, [r2, #0]
 8002cc6:	e7fc      	b.n	8002cc2 <_sbrk+0x2a>
 8002cc8:	00000400 	.word	0x00000400
 8002ccc:	20002000 	.word	0x20002000
 8002cd0:	200000f8 	.word	0x200000f8
 8002cd4:	20000110 	.word	0x20000110

08002cd8 <SystemInit>:
 8002cd8:	4770      	bx	lr
	...

08002cdc <uart1_gpio_init>:
 8002cdc:	23a0      	movs	r3, #160	; 0xa0
 8002cde:	05db      	lsls	r3, r3, #23
 8002ce0:	681a      	ldr	r2, [r3, #0]
 8002ce2:	4919      	ldr	r1, [pc, #100]	; (8002d48 <uart1_gpio_init+0x6c>)
 8002ce4:	400a      	ands	r2, r1
 8002ce6:	601a      	str	r2, [r3, #0]
 8002ce8:	2280      	movs	r2, #128	; 0x80
 8002cea:	6819      	ldr	r1, [r3, #0]
 8002cec:	0392      	lsls	r2, r2, #14
 8002cee:	430a      	orrs	r2, r1
 8002cf0:	601a      	str	r2, [r3, #0]
 8002cf2:	681a      	ldr	r2, [r3, #0]
 8002cf4:	4915      	ldr	r1, [pc, #84]	; (8002d4c <uart1_gpio_init+0x70>)
 8002cf6:	400a      	ands	r2, r1
 8002cf8:	601a      	str	r2, [r3, #0]
 8002cfa:	2280      	movs	r2, #128	; 0x80
 8002cfc:	6819      	ldr	r1, [r3, #0]
 8002cfe:	0312      	lsls	r2, r2, #12
 8002d00:	430a      	orrs	r2, r1
 8002d02:	601a      	str	r2, [r3, #0]
 8002d04:	2280      	movs	r2, #128	; 0x80
 8002d06:	6a59      	ldr	r1, [r3, #36]	; 0x24
 8002d08:	0052      	lsls	r2, r2, #1
 8002d0a:	430a      	orrs	r2, r1
 8002d0c:	625a      	str	r2, [r3, #36]	; 0x24
 8002d0e:	6a5a      	ldr	r2, [r3, #36]	; 0x24
 8002d10:	490f      	ldr	r1, [pc, #60]	; (8002d50 <uart1_gpio_init+0x74>)
 8002d12:	400a      	ands	r2, r1
 8002d14:	625a      	str	r2, [r3, #36]	; 0x24
 8002d16:	6a5a      	ldr	r2, [r3, #36]	; 0x24
 8002d18:	490e      	ldr	r1, [pc, #56]	; (8002d54 <uart1_gpio_init+0x78>)
 8002d1a:	400a      	ands	r2, r1
 8002d1c:	625a      	str	r2, [r3, #36]	; 0x24
 8002d1e:	6a5a      	ldr	r2, [r3, #36]	; 0x24
 8002d20:	490d      	ldr	r1, [pc, #52]	; (8002d58 <uart1_gpio_init+0x7c>)
 8002d22:	400a      	ands	r2, r1
 8002d24:	625a      	str	r2, [r3, #36]	; 0x24
 8002d26:	2210      	movs	r2, #16
 8002d28:	6a59      	ldr	r1, [r3, #36]	; 0x24
 8002d2a:	430a      	orrs	r2, r1
 8002d2c:	2120      	movs	r1, #32
 8002d2e:	625a      	str	r2, [r3, #36]	; 0x24
 8002d30:	6a5a      	ldr	r2, [r3, #36]	; 0x24
 8002d32:	438a      	bics	r2, r1
 8002d34:	625a      	str	r2, [r3, #36]	; 0x24
 8002d36:	6a5a      	ldr	r2, [r3, #36]	; 0x24
 8002d38:	1849      	adds	r1, r1, r1
 8002d3a:	438a      	bics	r2, r1
 8002d3c:	625a      	str	r2, [r3, #36]	; 0x24
 8002d3e:	6a5a      	ldr	r2, [r3, #36]	; 0x24
 8002d40:	3140      	adds	r1, #64	; 0x40
 8002d42:	438a      	bics	r2, r1
 8002d44:	625a      	str	r2, [r3, #36]	; 0x24
 8002d46:	4770      	bx	lr
 8002d48:	ffefffff 	.word	0xffefffff
 8002d4c:	fffbffff 	.word	0xfffbffff
 8002d50:	fffffdff 	.word	0xfffffdff
 8002d54:	fffffbff 	.word	0xfffffbff
 8002d58:	fffff7ff 	.word	0xfffff7ff

08002d5c <uart1_write>:
 8002d5c:	2220      	movs	r2, #32
 8002d5e:	4b0a      	ldr	r3, [pc, #40]	; (8002d88 <uart1_write+0x2c>)
 8002d60:	b510      	push	{r4, lr}
 8002d62:	6959      	ldr	r1, [r3, #20]
 8002d64:	430a      	orrs	r2, r1
 8002d66:	2180      	movs	r1, #128	; 0x80
 8002d68:	615a      	str	r2, [r3, #20]
 8002d6a:	4a08      	ldr	r2, [pc, #32]	; (8002d8c <uart1_write+0x30>)
 8002d6c:	69d4      	ldr	r4, [r2, #28]
 8002d6e:	420c      	tst	r4, r1
 8002d70:	d0fc      	beq.n	8002d6c <uart1_write+0x10>
 8002d72:	2140      	movs	r1, #64	; 0x40
 8002d74:	6290      	str	r0, [r2, #40]	; 0x28
 8002d76:	69d0      	ldr	r0, [r2, #28]
 8002d78:	4208      	tst	r0, r1
 8002d7a:	d0fc      	beq.n	8002d76 <uart1_write+0x1a>
 8002d7c:	2120      	movs	r1, #32
 8002d7e:	695a      	ldr	r2, [r3, #20]
 8002d80:	438a      	bics	r2, r1
 8002d82:	615a      	str	r2, [r3, #20]
 8002d84:	bd10      	pop	{r4, pc}
 8002d86:	46c0      	nop			; (mov r8, r8)
 8002d88:	50000400 	.word	0x50000400
 8002d8c:	40013800 	.word	0x40013800

08002d90 <uart1_1byte_read>:
 8002d90:	2020      	movs	r0, #32
 8002d92:	4b09      	ldr	r3, [pc, #36]	; (8002db8 <uart1_1byte_read+0x28>)
 8002d94:	b510      	push	{r4, lr}
 8002d96:	69dc      	ldr	r4, [r3, #28]
 8002d98:	69da      	ldr	r2, [r3, #28]
 8002d9a:	2108      	movs	r1, #8
 8002d9c:	4002      	ands	r2, r0
 8002d9e:	2000      	movs	r0, #0
 8002da0:	400c      	ands	r4, r1
 8002da2:	4322      	orrs	r2, r4
 8002da4:	4282      	cmp	r2, r0
 8002da6:	d006      	beq.n	8002db6 <uart1_1byte_read+0x26>
 8002da8:	4284      	cmp	r4, r0
 8002daa:	d002      	beq.n	8002db2 <uart1_1byte_read+0x22>
 8002dac:	6a1a      	ldr	r2, [r3, #32]
 8002dae:	4311      	orrs	r1, r2
 8002db0:	6219      	str	r1, [r3, #32]
 8002db2:	6a58      	ldr	r0, [r3, #36]	; 0x24
 8002db4:	b2c0      	uxtb	r0, r0
 8002db6:	bd10      	pop	{r4, pc}
 8002db8:	40013800 	.word	0x40013800

08002dbc <uart1_send_frame>:
 8002dbc:	b570      	push	{r4, r5, r6, lr}
 8002dbe:	0004      	movs	r4, r0
 8002dc0:	2900      	cmp	r1, #0
 8002dc2:	d008      	beq.n	8002dd6 <uart1_send_frame+0x1a>
 8002dc4:	1845      	adds	r5, r0, r1
 8002dc6:	7820      	ldrb	r0, [r4, #0]
 8002dc8:	f7ff ffc8 	bl	8002d5c <uart1_write>
 8002dcc:	2300      	movs	r3, #0
 8002dce:	7023      	strb	r3, [r4, #0]
 8002dd0:	3401      	adds	r4, #1
 8002dd2:	42ac      	cmp	r4, r5
 8002dd4:	d1f7      	bne.n	8002dc6 <uart1_send_frame+0xa>
 8002dd6:	bd70      	pop	{r4, r5, r6, pc}

08002dd8 <uart1_clean_buffer>:
 8002dd8:	2300      	movs	r3, #0
 8002dda:	001a      	movs	r2, r3
 8002ddc:	7203      	strb	r3, [r0, #8]
 8002dde:	2b18      	cmp	r3, #24
 8002de0:	dc01      	bgt.n	8002de6 <uart1_clean_buffer+0xe>
 8002de2:	6801      	ldr	r1, [r0, #0]
 8002de4:	54ca      	strb	r2, [r1, r3]
 8002de6:	6841      	ldr	r1, [r0, #4]
 8002de8:	54ca      	strb	r2, [r1, r3]
 8002dea:	3301      	adds	r3, #1
 8002dec:	2b64      	cmp	r3, #100	; 0x64
 8002dee:	d1f6      	bne.n	8002dde <uart1_clean_buffer+0x6>
 8002df0:	4770      	bx	lr
	...

08002df4 <uart1_init>:
 8002df4:	b570      	push	{r4, r5, r6, lr}
 8002df6:	000e      	movs	r6, r1
 8002df8:	0015      	movs	r5, r2
 8002dfa:	0004      	movs	r4, r0
 8002dfc:	f7ff ff6e 	bl	8002cdc <uart1_gpio_init>
 8002e00:	2280      	movs	r2, #128	; 0x80
 8002e02:	4b19      	ldr	r3, [pc, #100]	; (8002e68 <uart1_init+0x74>)
 8002e04:	01d2      	lsls	r2, r2, #7
 8002e06:	6c19      	ldr	r1, [r3, #64]	; 0x40
 8002e08:	430a      	orrs	r2, r1
 8002e0a:	641a      	str	r2, [r3, #64]	; 0x40
 8002e0c:	4a17      	ldr	r2, [pc, #92]	; (8002e6c <uart1_init+0x78>)
 8002e0e:	4294      	cmp	r4, r2
 8002e10:	d107      	bne.n	8002e22 <uart1_init+0x2e>
 8002e12:	2101      	movs	r1, #1
 8002e14:	6d5a      	ldr	r2, [r3, #84]	; 0x54
 8002e16:	438a      	bics	r2, r1
 8002e18:	655a      	str	r2, [r3, #84]	; 0x54
 8002e1a:	2202      	movs	r2, #2
 8002e1c:	6d59      	ldr	r1, [r3, #84]	; 0x54
 8002e1e:	430a      	orrs	r2, r1
 8002e20:	655a      	str	r2, [r3, #84]	; 0x54
 8002e22:	0031      	movs	r1, r6
 8002e24:	0020      	movs	r0, r4
 8002e26:	f7fd f97d 	bl	8000124 <__udivsi3>
 8002e2a:	230c      	movs	r3, #12
 8002e2c:	4c10      	ldr	r4, [pc, #64]	; (8002e70 <uart1_init+0x7c>)
 8002e2e:	b280      	uxth	r0, r0
 8002e30:	60e0      	str	r0, [r4, #12]
 8002e32:	6023      	str	r3, [r4, #0]
 8002e34:	2019      	movs	r0, #25
 8002e36:	f000 ff45 	bl	8003cc4 <malloc>
 8002e3a:	6028      	str	r0, [r5, #0]
 8002e3c:	2064      	movs	r0, #100	; 0x64
 8002e3e:	f000 ff41 	bl	8003cc4 <malloc>
 8002e42:	2300      	movs	r3, #0
 8002e44:	6068      	str	r0, [r5, #4]
 8002e46:	722b      	strb	r3, [r5, #8]
 8002e48:	0028      	movs	r0, r5
 8002e4a:	f7ff ffc5 	bl	8002dd8 <uart1_clean_buffer>
 8002e4e:	2320      	movs	r3, #32
 8002e50:	6822      	ldr	r2, [r4, #0]
 8002e52:	4313      	orrs	r3, r2
 8002e54:	6023      	str	r3, [r4, #0]
 8002e56:	2280      	movs	r2, #128	; 0x80
 8002e58:	4b06      	ldr	r3, [pc, #24]	; (8002e74 <uart1_init+0x80>)
 8002e5a:	0512      	lsls	r2, r2, #20
 8002e5c:	601a      	str	r2, [r3, #0]
 8002e5e:	2301      	movs	r3, #1
 8002e60:	6822      	ldr	r2, [r4, #0]
 8002e62:	4313      	orrs	r3, r2
 8002e64:	6023      	str	r3, [r4, #0]
 8002e66:	bd70      	pop	{r4, r5, r6, pc}
 8002e68:	40021000 	.word	0x40021000
 8002e6c:	00f42400 	.word	0x00f42400
 8002e70:	40013800 	.word	0x40013800
 8002e74:	e000e100 	.word	0xe000e100

08002e78 <uart1_read_to_frame>:
 8002e78:	b510      	push	{r4, lr}
 8002e7a:	7a03      	ldrb	r3, [r0, #8]
 8002e7c:	0004      	movs	r4, r0
 8002e7e:	2b18      	cmp	r3, #24
 8002e80:	d903      	bls.n	8002e8a <uart1_read_to_frame+0x12>
 8002e82:	f7ff ffa9 	bl	8002dd8 <uart1_clean_buffer>
 8002e86:	2300      	movs	r3, #0
 8002e88:	7223      	strb	r3, [r4, #8]
 8002e8a:	7a22      	ldrb	r2, [r4, #8]
 8002e8c:	6823      	ldr	r3, [r4, #0]
 8002e8e:	1c51      	adds	r1, r2, #1
 8002e90:	7221      	strb	r1, [r4, #8]
 8002e92:	189c      	adds	r4, r3, r2
 8002e94:	f7ff ff7c 	bl	8002d90 <uart1_1byte_read>
 8002e98:	7020      	strb	r0, [r4, #0]
 8002e9a:	bd10      	pop	{r4, pc}

08002e9c <Reset_Handler>:
 8002e9c:	480d      	ldr	r0, [pc, #52]	; (8002ed4 <LoopForever+0x2>)
 8002e9e:	4685      	mov	sp, r0
 8002ea0:	f7ff ff1a 	bl	8002cd8 <SystemInit>
 8002ea4:	480c      	ldr	r0, [pc, #48]	; (8002ed8 <LoopForever+0x6>)
 8002ea6:	490d      	ldr	r1, [pc, #52]	; (8002edc <LoopForever+0xa>)
 8002ea8:	4a0d      	ldr	r2, [pc, #52]	; (8002ee0 <LoopForever+0xe>)
 8002eaa:	2300      	movs	r3, #0
 8002eac:	e002      	b.n	8002eb4 <LoopCopyDataInit>

08002eae <CopyDataInit>:
 8002eae:	58d4      	ldr	r4, [r2, r3]
 8002eb0:	50c4      	str	r4, [r0, r3]
 8002eb2:	3304      	adds	r3, #4

08002eb4 <LoopCopyDataInit>:
 8002eb4:	18c4      	adds	r4, r0, r3
 8002eb6:	428c      	cmp	r4, r1
 8002eb8:	d3f9      	bcc.n	8002eae <CopyDataInit>
 8002eba:	4a0a      	ldr	r2, [pc, #40]	; (8002ee4 <LoopForever+0x12>)
 8002ebc:	4c0a      	ldr	r4, [pc, #40]	; (8002ee8 <LoopForever+0x16>)
 8002ebe:	2300      	movs	r3, #0
 8002ec0:	e001      	b.n	8002ec6 <LoopFillZerobss>

08002ec2 <FillZerobss>:
 8002ec2:	6013      	str	r3, [r2, #0]
 8002ec4:	3204      	adds	r2, #4

08002ec6 <LoopFillZerobss>:
 8002ec6:	42a2      	cmp	r2, r4
 8002ec8:	d3fb      	bcc.n	8002ec2 <FillZerobss>
 8002eca:	f000 fed7 	bl	8003c7c <__libc_init_array>
 8002ece:	f7ff fb41 	bl	8002554 <main>

08002ed2 <LoopForever>:
 8002ed2:	e7fe      	b.n	8002ed2 <LoopForever>
 8002ed4:	20002000 	.word	0x20002000
 8002ed8:	20000000 	.word	0x20000000
 8002edc:	20000070 	.word	0x20000070
 8002ee0:	080046f0 	.word	0x080046f0
 8002ee4:	20000070 	.word	0x20000070
 8002ee8:	20000110 	.word	0x20000110

08002eec <ADC1_IRQHandler>:
 8002eec:	e7fe      	b.n	8002eec <ADC1_IRQHandler>
	...

08002ef0 <HAL_InitTick>:
 8002ef0:	b570      	push	{r4, r5, r6, lr}
 8002ef2:	4b10      	ldr	r3, [pc, #64]	; (8002f34 <HAL_InitTick+0x44>)
 8002ef4:	0005      	movs	r5, r0
 8002ef6:	7819      	ldrb	r1, [r3, #0]
 8002ef8:	2900      	cmp	r1, #0
 8002efa:	d101      	bne.n	8002f00 <HAL_InitTick+0x10>
 8002efc:	2001      	movs	r0, #1
 8002efe:	bd70      	pop	{r4, r5, r6, pc}
 8002f00:	20fa      	movs	r0, #250	; 0xfa
 8002f02:	0080      	lsls	r0, r0, #2
 8002f04:	f7fd f90e 	bl	8000124 <__udivsi3>
 8002f08:	4b0b      	ldr	r3, [pc, #44]	; (8002f38 <HAL_InitTick+0x48>)
 8002f0a:	0001      	movs	r1, r0
 8002f0c:	6818      	ldr	r0, [r3, #0]
 8002f0e:	f7fd f909 	bl	8000124 <__udivsi3>
 8002f12:	f000 f877 	bl	8003004 <HAL_SYSTICK_Config>
 8002f16:	1e04      	subs	r4, r0, #0
 8002f18:	d1f0      	bne.n	8002efc <HAL_InitTick+0xc>
 8002f1a:	2d03      	cmp	r5, #3
 8002f1c:	d8ee      	bhi.n	8002efc <HAL_InitTick+0xc>
 8002f1e:	0002      	movs	r2, r0
 8002f20:	2001      	movs	r0, #1
 8002f22:	0029      	movs	r1, r5
 8002f24:	4240      	negs	r0, r0
 8002f26:	f000 f843 	bl	8002fb0 <HAL_NVIC_SetPriority>
 8002f2a:	4b04      	ldr	r3, [pc, #16]	; (8002f3c <HAL_InitTick+0x4c>)
 8002f2c:	0020      	movs	r0, r4
 8002f2e:	601d      	str	r5, [r3, #0]
 8002f30:	e7e5      	b.n	8002efe <HAL_InitTick+0xe>
 8002f32:	46c0      	nop			; (mov r8, r8)
 8002f34:	20000004 	.word	0x20000004
 8002f38:	20000000 	.word	0x20000000
 8002f3c:	20000008 	.word	0x20000008

08002f40 <HAL_Init>:
 8002f40:	2380      	movs	r3, #128	; 0x80
 8002f42:	4a08      	ldr	r2, [pc, #32]	; (8002f64 <HAL_Init+0x24>)
 8002f44:	005b      	lsls	r3, r3, #1
 8002f46:	6811      	ldr	r1, [r2, #0]
 8002f48:	b510      	push	{r4, lr}
 8002f4a:	430b      	orrs	r3, r1
 8002f4c:	2003      	movs	r0, #3
 8002f4e:	6013      	str	r3, [r2, #0]
 8002f50:	f7ff ffce 	bl	8002ef0 <HAL_InitTick>
 8002f54:	1e04      	subs	r4, r0, #0
 8002f56:	d103      	bne.n	8002f60 <HAL_Init+0x20>
 8002f58:	f7ff fe46 	bl	8002be8 <HAL_MspInit>
 8002f5c:	0020      	movs	r0, r4
 8002f5e:	bd10      	pop	{r4, pc}
 8002f60:	2401      	movs	r4, #1
 8002f62:	e7fb      	b.n	8002f5c <HAL_Init+0x1c>
 8002f64:	40022000 	.word	0x40022000

08002f68 <HAL_IncTick>:
 8002f68:	4a03      	ldr	r2, [pc, #12]	; (8002f78 <HAL_IncTick+0x10>)
 8002f6a:	4b04      	ldr	r3, [pc, #16]	; (8002f7c <HAL_IncTick+0x14>)
 8002f6c:	6811      	ldr	r1, [r2, #0]
 8002f6e:	781b      	ldrb	r3, [r3, #0]
 8002f70:	185b      	adds	r3, r3, r1
 8002f72:	6013      	str	r3, [r2, #0]
 8002f74:	4770      	bx	lr
 8002f76:	46c0      	nop			; (mov r8, r8)
 8002f78:	200000fc 	.word	0x200000fc
 8002f7c:	20000004 	.word	0x20000004

08002f80 <HAL_GetTick>:
 8002f80:	4b01      	ldr	r3, [pc, #4]	; (8002f88 <HAL_GetTick+0x8>)
 8002f82:	6818      	ldr	r0, [r3, #0]
 8002f84:	4770      	bx	lr
 8002f86:	46c0      	nop			; (mov r8, r8)
 8002f88:	200000fc 	.word	0x200000fc

08002f8c <HAL_Delay>:
 8002f8c:	b570      	push	{r4, r5, r6, lr}
 8002f8e:	0004      	movs	r4, r0
 8002f90:	f7ff fff6 	bl	8002f80 <HAL_GetTick>
 8002f94:	0005      	movs	r5, r0
 8002f96:	1c63      	adds	r3, r4, #1
 8002f98:	d002      	beq.n	8002fa0 <HAL_Delay+0x14>
 8002f9a:	4b04      	ldr	r3, [pc, #16]	; (8002fac <HAL_Delay+0x20>)
 8002f9c:	781b      	ldrb	r3, [r3, #0]
 8002f9e:	18e4      	adds	r4, r4, r3
 8002fa0:	f7ff ffee 	bl	8002f80 <HAL_GetTick>
 8002fa4:	1b40      	subs	r0, r0, r5
 8002fa6:	42a0      	cmp	r0, r4
 8002fa8:	d3fa      	bcc.n	8002fa0 <HAL_Delay+0x14>
 8002faa:	bd70      	pop	{r4, r5, r6, pc}
 8002fac:	20000004 	.word	0x20000004

08002fb0 <HAL_NVIC_SetPriority>:
 8002fb0:	b530      	push	{r4, r5, lr}
 8002fb2:	25ff      	movs	r5, #255	; 0xff
 8002fb4:	2403      	movs	r4, #3
 8002fb6:	002a      	movs	r2, r5
 8002fb8:	4004      	ands	r4, r0
 8002fba:	00e4      	lsls	r4, r4, #3
 8002fbc:	40a2      	lsls	r2, r4
 8002fbe:	0189      	lsls	r1, r1, #6
 8002fc0:	4029      	ands	r1, r5
 8002fc2:	43d2      	mvns	r2, r2
 8002fc4:	40a1      	lsls	r1, r4
 8002fc6:	b2c3      	uxtb	r3, r0
 8002fc8:	2800      	cmp	r0, #0
 8002fca:	db0a      	blt.n	8002fe2 <HAL_NVIC_SetPriority+0x32>
 8002fcc:	24c0      	movs	r4, #192	; 0xc0
 8002fce:	4b0b      	ldr	r3, [pc, #44]	; (8002ffc <HAL_NVIC_SetPriority+0x4c>)
 8002fd0:	0880      	lsrs	r0, r0, #2
 8002fd2:	0080      	lsls	r0, r0, #2
 8002fd4:	18c0      	adds	r0, r0, r3
 8002fd6:	00a4      	lsls	r4, r4, #2
 8002fd8:	5903      	ldr	r3, [r0, r4]
 8002fda:	401a      	ands	r2, r3
 8002fdc:	4311      	orrs	r1, r2
 8002fde:	5101      	str	r1, [r0, r4]
 8002fe0:	bd30      	pop	{r4, r5, pc}
 8002fe2:	200f      	movs	r0, #15
 8002fe4:	4003      	ands	r3, r0
 8002fe6:	3b08      	subs	r3, #8
 8002fe8:	4805      	ldr	r0, [pc, #20]	; (8003000 <HAL_NVIC_SetPriority+0x50>)
 8002fea:	089b      	lsrs	r3, r3, #2
 8002fec:	009b      	lsls	r3, r3, #2
 8002fee:	181b      	adds	r3, r3, r0
 8002ff0:	69d8      	ldr	r0, [r3, #28]
 8002ff2:	4002      	ands	r2, r0
 8002ff4:	4311      	orrs	r1, r2
 8002ff6:	61d9      	str	r1, [r3, #28]
 8002ff8:	e7f2      	b.n	8002fe0 <HAL_NVIC_SetPriority+0x30>
 8002ffa:	46c0      	nop			; (mov r8, r8)
 8002ffc:	e000e100 	.word	0xe000e100
 8003000:	e000ed00 	.word	0xe000ed00

08003004 <HAL_SYSTICK_Config>:
 8003004:	2280      	movs	r2, #128	; 0x80
 8003006:	1e43      	subs	r3, r0, #1
 8003008:	0452      	lsls	r2, r2, #17
 800300a:	2001      	movs	r0, #1
 800300c:	4293      	cmp	r3, r2
 800300e:	d20d      	bcs.n	800302c <HAL_SYSTICK_Config+0x28>
 8003010:	21c0      	movs	r1, #192	; 0xc0
 8003012:	4a07      	ldr	r2, [pc, #28]	; (8003030 <HAL_SYSTICK_Config+0x2c>)
 8003014:	4807      	ldr	r0, [pc, #28]	; (8003034 <HAL_SYSTICK_Config+0x30>)
 8003016:	6053      	str	r3, [r2, #4]
 8003018:	6a03      	ldr	r3, [r0, #32]
 800301a:	0609      	lsls	r1, r1, #24
 800301c:	021b      	lsls	r3, r3, #8
 800301e:	0a1b      	lsrs	r3, r3, #8
 8003020:	430b      	orrs	r3, r1
 8003022:	6203      	str	r3, [r0, #32]
 8003024:	2000      	movs	r0, #0
 8003026:	2307      	movs	r3, #7
 8003028:	6090      	str	r0, [r2, #8]
 800302a:	6013      	str	r3, [r2, #0]
 800302c:	4770      	bx	lr
 800302e:	46c0      	nop			; (mov r8, r8)
 8003030:	e000e010 	.word	0xe000e010
 8003034:	e000ed00 	.word	0xe000ed00

08003038 <HAL_GPIO_Init>:
 8003038:	2300      	movs	r3, #0
 800303a:	b5f0      	push	{r4, r5, r6, r7, lr}
 800303c:	b085      	sub	sp, #20
 800303e:	680a      	ldr	r2, [r1, #0]
 8003040:	0014      	movs	r4, r2
 8003042:	40dc      	lsrs	r4, r3
 8003044:	d101      	bne.n	800304a <HAL_GPIO_Init+0x12>
 8003046:	b005      	add	sp, #20
 8003048:	bdf0      	pop	{r4, r5, r6, r7, pc}
 800304a:	2501      	movs	r5, #1
 800304c:	0014      	movs	r4, r2
 800304e:	409d      	lsls	r5, r3
 8003050:	402c      	ands	r4, r5
 8003052:	9401      	str	r4, [sp, #4]
 8003054:	422a      	tst	r2, r5
 8003056:	d100      	bne.n	800305a <HAL_GPIO_Init+0x22>
 8003058:	e08e      	b.n	8003178 <HAL_GPIO_Init+0x140>
 800305a:	684a      	ldr	r2, [r1, #4]
 800305c:	005e      	lsls	r6, r3, #1
 800305e:	4694      	mov	ip, r2
 8003060:	2203      	movs	r2, #3
 8003062:	4664      	mov	r4, ip
 8003064:	4022      	ands	r2, r4
 8003066:	2403      	movs	r4, #3
 8003068:	40b4      	lsls	r4, r6
 800306a:	43e4      	mvns	r4, r4
 800306c:	9402      	str	r4, [sp, #8]
 800306e:	1e54      	subs	r4, r2, #1
 8003070:	2c01      	cmp	r4, #1
 8003072:	d82a      	bhi.n	80030ca <HAL_GPIO_Init+0x92>
 8003074:	6887      	ldr	r7, [r0, #8]
 8003076:	9c02      	ldr	r4, [sp, #8]
 8003078:	4027      	ands	r7, r4
 800307a:	68cc      	ldr	r4, [r1, #12]
 800307c:	40b4      	lsls	r4, r6
 800307e:	433c      	orrs	r4, r7
 8003080:	6084      	str	r4, [r0, #8]
 8003082:	6844      	ldr	r4, [r0, #4]
 8003084:	2701      	movs	r7, #1
 8003086:	43ac      	bics	r4, r5
 8003088:	0025      	movs	r5, r4
 800308a:	4664      	mov	r4, ip
 800308c:	0924      	lsrs	r4, r4, #4
 800308e:	403c      	ands	r4, r7
 8003090:	409c      	lsls	r4, r3
 8003092:	432c      	orrs	r4, r5
 8003094:	6044      	str	r4, [r0, #4]
 8003096:	68c5      	ldr	r5, [r0, #12]
 8003098:	9c02      	ldr	r4, [sp, #8]
 800309a:	4025      	ands	r5, r4
 800309c:	688c      	ldr	r4, [r1, #8]
 800309e:	40b4      	lsls	r4, r6
 80030a0:	432c      	orrs	r4, r5
 80030a2:	60c4      	str	r4, [r0, #12]
 80030a4:	2a02      	cmp	r2, #2
 80030a6:	d112      	bne.n	80030ce <HAL_GPIO_Init+0x96>
 80030a8:	08dc      	lsrs	r4, r3, #3
 80030aa:	2507      	movs	r5, #7
 80030ac:	00a4      	lsls	r4, r4, #2
 80030ae:	1904      	adds	r4, r0, r4
 80030b0:	6a27      	ldr	r7, [r4, #32]
 80030b2:	9403      	str	r4, [sp, #12]
 80030b4:	240f      	movs	r4, #15
 80030b6:	401d      	ands	r5, r3
 80030b8:	00ad      	lsls	r5, r5, #2
 80030ba:	40ac      	lsls	r4, r5
 80030bc:	43a7      	bics	r7, r4
 80030be:	690c      	ldr	r4, [r1, #16]
 80030c0:	40ac      	lsls	r4, r5
 80030c2:	4327      	orrs	r7, r4
 80030c4:	9c03      	ldr	r4, [sp, #12]
 80030c6:	6227      	str	r7, [r4, #32]
 80030c8:	e001      	b.n	80030ce <HAL_GPIO_Init+0x96>
 80030ca:	2a03      	cmp	r2, #3
 80030cc:	d1e3      	bne.n	8003096 <HAL_GPIO_Init+0x5e>
 80030ce:	6804      	ldr	r4, [r0, #0]
 80030d0:	9d02      	ldr	r5, [sp, #8]
 80030d2:	40b2      	lsls	r2, r6
 80030d4:	4025      	ands	r5, r4
 80030d6:	002c      	movs	r4, r5
 80030d8:	4314      	orrs	r4, r2
 80030da:	6004      	str	r4, [r0, #0]
 80030dc:	24c0      	movs	r4, #192	; 0xc0
 80030de:	4662      	mov	r2, ip
 80030e0:	02a4      	lsls	r4, r4, #10
 80030e2:	4222      	tst	r2, r4
 80030e4:	d048      	beq.n	8003178 <HAL_GPIO_Init+0x140>
 80030e6:	4a25      	ldr	r2, [pc, #148]	; (800317c <HAL_GPIO_Init+0x144>)
 80030e8:	2503      	movs	r5, #3
 80030ea:	089c      	lsrs	r4, r3, #2
 80030ec:	00a4      	lsls	r4, r4, #2
 80030ee:	18a4      	adds	r4, r4, r2
 80030f0:	220f      	movs	r2, #15
 80030f2:	401d      	ands	r5, r3
 80030f4:	00ed      	lsls	r5, r5, #3
 80030f6:	40aa      	lsls	r2, r5
 80030f8:	27a0      	movs	r7, #160	; 0xa0
 80030fa:	6e26      	ldr	r6, [r4, #96]	; 0x60
 80030fc:	05ff      	lsls	r7, r7, #23
 80030fe:	4396      	bics	r6, r2
 8003100:	2200      	movs	r2, #0
 8003102:	42b8      	cmp	r0, r7
 8003104:	d00c      	beq.n	8003120 <HAL_GPIO_Init+0xe8>
 8003106:	4f1e      	ldr	r7, [pc, #120]	; (8003180 <HAL_GPIO_Init+0x148>)
 8003108:	3201      	adds	r2, #1
 800310a:	42b8      	cmp	r0, r7
 800310c:	d008      	beq.n	8003120 <HAL_GPIO_Init+0xe8>
 800310e:	4f1d      	ldr	r7, [pc, #116]	; (8003184 <HAL_GPIO_Init+0x14c>)
 8003110:	3201      	adds	r2, #1
 8003112:	42b8      	cmp	r0, r7
 8003114:	d004      	beq.n	8003120 <HAL_GPIO_Init+0xe8>
 8003116:	4f1c      	ldr	r7, [pc, #112]	; (8003188 <HAL_GPIO_Init+0x150>)
 8003118:	3201      	adds	r2, #1
 800311a:	42b8      	cmp	r0, r7
 800311c:	d000      	beq.n	8003120 <HAL_GPIO_Init+0xe8>
 800311e:	3202      	adds	r2, #2
 8003120:	40aa      	lsls	r2, r5
 8003122:	4667      	mov	r7, ip
 8003124:	4332      	orrs	r2, r6
 8003126:	6622      	str	r2, [r4, #96]	; 0x60
 8003128:	4c14      	ldr	r4, [pc, #80]	; (800317c <HAL_GPIO_Init+0x144>)
 800312a:	9a01      	ldr	r2, [sp, #4]
 800312c:	6826      	ldr	r6, [r4, #0]
 800312e:	9d01      	ldr	r5, [sp, #4]
 8003130:	43d2      	mvns	r2, r2
 8003132:	4335      	orrs	r5, r6
 8003134:	02ff      	lsls	r7, r7, #11
 8003136:	d401      	bmi.n	800313c <HAL_GPIO_Init+0x104>
 8003138:	0035      	movs	r5, r6
 800313a:	4015      	ands	r5, r2
 800313c:	4667      	mov	r7, ip
 800313e:	6025      	str	r5, [r4, #0]
 8003140:	6866      	ldr	r6, [r4, #4]
 8003142:	9d01      	ldr	r5, [sp, #4]
 8003144:	4335      	orrs	r5, r6
 8003146:	02bf      	lsls	r7, r7, #10
 8003148:	d401      	bmi.n	800314e <HAL_GPIO_Init+0x116>
 800314a:	0035      	movs	r5, r6
 800314c:	4015      	ands	r5, r2
 800314e:	4667      	mov	r7, ip
 8003150:	6065      	str	r5, [r4, #4]
 8003152:	4c0e      	ldr	r4, [pc, #56]	; (800318c <HAL_GPIO_Init+0x154>)
 8003154:	9d01      	ldr	r5, [sp, #4]
 8003156:	6fe6      	ldr	r6, [r4, #124]	; 0x7c
 8003158:	4335      	orrs	r5, r6
 800315a:	03bf      	lsls	r7, r7, #14
 800315c:	d401      	bmi.n	8003162 <HAL_GPIO_Init+0x12a>
 800315e:	0035      	movs	r5, r6
 8003160:	4015      	ands	r5, r2
 8003162:	4667      	mov	r7, ip
 8003164:	67e5      	str	r5, [r4, #124]	; 0x7c
 8003166:	4c0a      	ldr	r4, [pc, #40]	; (8003190 <HAL_GPIO_Init+0x158>)
 8003168:	9e01      	ldr	r6, [sp, #4]
 800316a:	6fe5      	ldr	r5, [r4, #124]	; 0x7c
 800316c:	432e      	orrs	r6, r5
 800316e:	03ff      	lsls	r7, r7, #15
 8003170:	d401      	bmi.n	8003176 <HAL_GPIO_Init+0x13e>
 8003172:	4015      	ands	r5, r2
 8003174:	002e      	movs	r6, r5
 8003176:	67e6      	str	r6, [r4, #124]	; 0x7c
 8003178:	3301      	adds	r3, #1
 800317a:	e760      	b.n	800303e <HAL_GPIO_Init+0x6>
 800317c:	40021800 	.word	0x40021800
 8003180:	50000400 	.word	0x50000400
 8003184:	50000800 	.word	0x50000800
 8003188:	50000c00 	.word	0x50000c00
 800318c:	40021808 	.word	0x40021808
 8003190:	40021804 	.word	0x40021804

08003194 <HAL_GPIO_ReadPin>:
 8003194:	6900      	ldr	r0, [r0, #16]
 8003196:	4008      	ands	r0, r1
 8003198:	1e43      	subs	r3, r0, #1
 800319a:	4198      	sbcs	r0, r3
 800319c:	b2c0      	uxtb	r0, r0
 800319e:	4770      	bx	lr

080031a0 <HAL_GPIO_WritePin>:
 80031a0:	2a00      	cmp	r2, #0
 80031a2:	d001      	beq.n	80031a8 <HAL_GPIO_WritePin+0x8>
 80031a4:	6181      	str	r1, [r0, #24]
 80031a6:	4770      	bx	lr
 80031a8:	6281      	str	r1, [r0, #40]	; 0x28
 80031aa:	e7fc      	b.n	80031a6 <HAL_GPIO_WritePin+0x6>

080031ac <HAL_PWREx_ControlVoltageScaling>:
 80031ac:	b510      	push	{r4, lr}
 80031ae:	4c11      	ldr	r4, [pc, #68]	; (80031f4 <HAL_PWREx_ControlVoltageScaling+0x48>)
 80031b0:	4911      	ldr	r1, [pc, #68]	; (80031f8 <HAL_PWREx_ControlVoltageScaling+0x4c>)
 80031b2:	6823      	ldr	r3, [r4, #0]
 80031b4:	0002      	movs	r2, r0
 80031b6:	400b      	ands	r3, r1
 80031b8:	4303      	orrs	r3, r0
 80031ba:	6023      	str	r3, [r4, #0]
 80031bc:	2380      	movs	r3, #128	; 0x80
 80031be:	2000      	movs	r0, #0
 80031c0:	009b      	lsls	r3, r3, #2
 80031c2:	429a      	cmp	r2, r3
 80031c4:	d10e      	bne.n	80031e4 <HAL_PWREx_ControlVoltageScaling+0x38>
 80031c6:	4b0d      	ldr	r3, [pc, #52]	; (80031fc <HAL_PWREx_ControlVoltageScaling+0x50>)
 80031c8:	490d      	ldr	r1, [pc, #52]	; (8003200 <HAL_PWREx_ControlVoltageScaling+0x54>)
 80031ca:	6818      	ldr	r0, [r3, #0]
 80031cc:	2306      	movs	r3, #6
 80031ce:	4358      	muls	r0, r3
 80031d0:	f7fc ffa8 	bl	8000124 <__udivsi3>
 80031d4:	2280      	movs	r2, #128	; 0x80
 80031d6:	1c43      	adds	r3, r0, #1
 80031d8:	00d2      	lsls	r2, r2, #3
 80031da:	6961      	ldr	r1, [r4, #20]
 80031dc:	0008      	movs	r0, r1
 80031de:	4010      	ands	r0, r2
 80031e0:	4211      	tst	r1, r2
 80031e2:	d100      	bne.n	80031e6 <HAL_PWREx_ControlVoltageScaling+0x3a>
 80031e4:	bd10      	pop	{r4, pc}
 80031e6:	2b00      	cmp	r3, #0
 80031e8:	d001      	beq.n	80031ee <HAL_PWREx_ControlVoltageScaling+0x42>
 80031ea:	3b01      	subs	r3, #1
 80031ec:	e7f5      	b.n	80031da <HAL_PWREx_ControlVoltageScaling+0x2e>
 80031ee:	2003      	movs	r0, #3
 80031f0:	e7f8      	b.n	80031e4 <HAL_PWREx_ControlVoltageScaling+0x38>
 80031f2:	46c0      	nop			; (mov r8, r8)
 80031f4:	40007000 	.word	0x40007000
 80031f8:	fffff9ff 	.word	0xfffff9ff
 80031fc:	20000000 	.word	0x20000000
 8003200:	000f4240 	.word	0x000f4240

08003204 <HAL_RCC_OscConfig>:
 8003204:	b5f0      	push	{r4, r5, r6, r7, lr}
 8003206:	0004      	movs	r4, r0
 8003208:	b085      	sub	sp, #20
 800320a:	2800      	cmp	r0, #0
 800320c:	d023      	beq.n	8003256 <HAL_RCC_OscConfig+0x52>
 800320e:	6803      	ldr	r3, [r0, #0]
 8003210:	07db      	lsls	r3, r3, #31
 8003212:	d410      	bmi.n	8003236 <HAL_RCC_OscConfig+0x32>
 8003214:	6823      	ldr	r3, [r4, #0]
 8003216:	079b      	lsls	r3, r3, #30
 8003218:	d45e      	bmi.n	80032d8 <HAL_RCC_OscConfig+0xd4>
 800321a:	6823      	ldr	r3, [r4, #0]
 800321c:	071b      	lsls	r3, r3, #28
 800321e:	d500      	bpl.n	8003222 <HAL_RCC_OscConfig+0x1e>
 8003220:	e0c3      	b.n	80033aa <HAL_RCC_OscConfig+0x1a6>
 8003222:	6823      	ldr	r3, [r4, #0]
 8003224:	075b      	lsls	r3, r3, #29
 8003226:	d500      	bpl.n	800322a <HAL_RCC_OscConfig+0x26>
 8003228:	e0f4      	b.n	8003414 <HAL_RCC_OscConfig+0x210>
 800322a:	69e3      	ldr	r3, [r4, #28]
 800322c:	2b00      	cmp	r3, #0
 800322e:	d000      	beq.n	8003232 <HAL_RCC_OscConfig+0x2e>
 8003230:	e17a      	b.n	8003528 <HAL_RCC_OscConfig+0x324>
 8003232:	2000      	movs	r0, #0
 8003234:	e029      	b.n	800328a <HAL_RCC_OscConfig+0x86>
 8003236:	2238      	movs	r2, #56	; 0x38
 8003238:	4daf      	ldr	r5, [pc, #700]	; (80034f8 <HAL_RCC_OscConfig+0x2f4>)
 800323a:	68ab      	ldr	r3, [r5, #8]
 800323c:	4013      	ands	r3, r2
 800323e:	68ea      	ldr	r2, [r5, #12]
 8003240:	2b10      	cmp	r3, #16
 8003242:	d10a      	bne.n	800325a <HAL_RCC_OscConfig+0x56>
 8003244:	43d2      	mvns	r2, r2
 8003246:	0793      	lsls	r3, r2, #30
 8003248:	d109      	bne.n	800325e <HAL_RCC_OscConfig+0x5a>
 800324a:	682b      	ldr	r3, [r5, #0]
 800324c:	039b      	lsls	r3, r3, #14
 800324e:	d5e1      	bpl.n	8003214 <HAL_RCC_OscConfig+0x10>
 8003250:	6863      	ldr	r3, [r4, #4]
 8003252:	2b00      	cmp	r3, #0
 8003254:	d1de      	bne.n	8003214 <HAL_RCC_OscConfig+0x10>
 8003256:	2001      	movs	r0, #1
 8003258:	e017      	b.n	800328a <HAL_RCC_OscConfig+0x86>
 800325a:	2b08      	cmp	r3, #8
 800325c:	d0f5      	beq.n	800324a <HAL_RCC_OscConfig+0x46>
 800325e:	2280      	movs	r2, #128	; 0x80
 8003260:	6863      	ldr	r3, [r4, #4]
 8003262:	0252      	lsls	r2, r2, #9
 8003264:	4293      	cmp	r3, r2
 8003266:	d112      	bne.n	800328e <HAL_RCC_OscConfig+0x8a>
 8003268:	682a      	ldr	r2, [r5, #0]
 800326a:	4313      	orrs	r3, r2
 800326c:	602b      	str	r3, [r5, #0]
 800326e:	f7ff fe87 	bl	8002f80 <HAL_GetTick>
 8003272:	2780      	movs	r7, #128	; 0x80
 8003274:	0006      	movs	r6, r0
 8003276:	02bf      	lsls	r7, r7, #10
 8003278:	682b      	ldr	r3, [r5, #0]
 800327a:	423b      	tst	r3, r7
 800327c:	d1ca      	bne.n	8003214 <HAL_RCC_OscConfig+0x10>
 800327e:	f7ff fe7f 	bl	8002f80 <HAL_GetTick>
 8003282:	1b80      	subs	r0, r0, r6
 8003284:	2864      	cmp	r0, #100	; 0x64
 8003286:	d9f7      	bls.n	8003278 <HAL_RCC_OscConfig+0x74>
 8003288:	2003      	movs	r0, #3
 800328a:	b005      	add	sp, #20
 800328c:	bdf0      	pop	{r4, r5, r6, r7, pc}
 800328e:	21a0      	movs	r1, #160	; 0xa0
 8003290:	02c9      	lsls	r1, r1, #11
 8003292:	428b      	cmp	r3, r1
 8003294:	d108      	bne.n	80032a8 <HAL_RCC_OscConfig+0xa4>
 8003296:	2380      	movs	r3, #128	; 0x80
 8003298:	6829      	ldr	r1, [r5, #0]
 800329a:	02db      	lsls	r3, r3, #11
 800329c:	430b      	orrs	r3, r1
 800329e:	602b      	str	r3, [r5, #0]
 80032a0:	682b      	ldr	r3, [r5, #0]
 80032a2:	431a      	orrs	r2, r3
 80032a4:	602a      	str	r2, [r5, #0]
 80032a6:	e7e2      	b.n	800326e <HAL_RCC_OscConfig+0x6a>
 80032a8:	682a      	ldr	r2, [r5, #0]
 80032aa:	4994      	ldr	r1, [pc, #592]	; (80034fc <HAL_RCC_OscConfig+0x2f8>)
 80032ac:	400a      	ands	r2, r1
 80032ae:	602a      	str	r2, [r5, #0]
 80032b0:	682a      	ldr	r2, [r5, #0]
 80032b2:	4993      	ldr	r1, [pc, #588]	; (8003500 <HAL_RCC_OscConfig+0x2fc>)
 80032b4:	400a      	ands	r2, r1
 80032b6:	602a      	str	r2, [r5, #0]
 80032b8:	2b00      	cmp	r3, #0
 80032ba:	d1d8      	bne.n	800326e <HAL_RCC_OscConfig+0x6a>
 80032bc:	f7ff fe60 	bl	8002f80 <HAL_GetTick>
 80032c0:	2780      	movs	r7, #128	; 0x80
 80032c2:	0006      	movs	r6, r0
 80032c4:	02bf      	lsls	r7, r7, #10
 80032c6:	682b      	ldr	r3, [r5, #0]
 80032c8:	423b      	tst	r3, r7
 80032ca:	d0a3      	beq.n	8003214 <HAL_RCC_OscConfig+0x10>
 80032cc:	f7ff fe58 	bl	8002f80 <HAL_GetTick>
 80032d0:	1b80      	subs	r0, r0, r6
 80032d2:	2864      	cmp	r0, #100	; 0x64
 80032d4:	d9f7      	bls.n	80032c6 <HAL_RCC_OscConfig+0xc2>
 80032d6:	e7d7      	b.n	8003288 <HAL_RCC_OscConfig+0x84>
 80032d8:	2338      	movs	r3, #56	; 0x38
 80032da:	4d87      	ldr	r5, [pc, #540]	; (80034f8 <HAL_RCC_OscConfig+0x2f4>)
 80032dc:	68aa      	ldr	r2, [r5, #8]
 80032de:	4013      	ands	r3, r2
 80032e0:	68ea      	ldr	r2, [r5, #12]
 80032e2:	2b10      	cmp	r3, #16
 80032e4:	d128      	bne.n	8003338 <HAL_RCC_OscConfig+0x134>
 80032e6:	2103      	movs	r1, #3
 80032e8:	400a      	ands	r2, r1
 80032ea:	2a02      	cmp	r2, #2
 80032ec:	d126      	bne.n	800333c <HAL_RCC_OscConfig+0x138>
 80032ee:	682a      	ldr	r2, [r5, #0]
 80032f0:	0552      	lsls	r2, r2, #21
 80032f2:	d502      	bpl.n	80032fa <HAL_RCC_OscConfig+0xf6>
 80032f4:	68e2      	ldr	r2, [r4, #12]
 80032f6:	2a00      	cmp	r2, #0
 80032f8:	d0ad      	beq.n	8003256 <HAL_RCC_OscConfig+0x52>
 80032fa:	6869      	ldr	r1, [r5, #4]
 80032fc:	6962      	ldr	r2, [r4, #20]
 80032fe:	4881      	ldr	r0, [pc, #516]	; (8003504 <HAL_RCC_OscConfig+0x300>)
 8003300:	0212      	lsls	r2, r2, #8
 8003302:	4001      	ands	r1, r0
 8003304:	430a      	orrs	r2, r1
 8003306:	606a      	str	r2, [r5, #4]
 8003308:	2b00      	cmp	r3, #0
 800330a:	d10d      	bne.n	8003328 <HAL_RCC_OscConfig+0x124>
 800330c:	682b      	ldr	r3, [r5, #0]
 800330e:	4a7e      	ldr	r2, [pc, #504]	; (8003508 <HAL_RCC_OscConfig+0x304>)
 8003310:	4013      	ands	r3, r2
 8003312:	6922      	ldr	r2, [r4, #16]
 8003314:	4313      	orrs	r3, r2
 8003316:	602b      	str	r3, [r5, #0]
 8003318:	682b      	ldr	r3, [r5, #0]
 800331a:	4a7c      	ldr	r2, [pc, #496]	; (800350c <HAL_RCC_OscConfig+0x308>)
 800331c:	049b      	lsls	r3, r3, #18
 800331e:	0f5b      	lsrs	r3, r3, #29
 8003320:	40da      	lsrs	r2, r3
 8003322:	0013      	movs	r3, r2
 8003324:	4a7a      	ldr	r2, [pc, #488]	; (8003510 <HAL_RCC_OscConfig+0x30c>)
 8003326:	6013      	str	r3, [r2, #0]
 8003328:	4b7a      	ldr	r3, [pc, #488]	; (8003514 <HAL_RCC_OscConfig+0x310>)
 800332a:	6818      	ldr	r0, [r3, #0]
 800332c:	f7ff fde0 	bl	8002ef0 <HAL_InitTick>
 8003330:	2800      	cmp	r0, #0
 8003332:	d100      	bne.n	8003336 <HAL_RCC_OscConfig+0x132>
 8003334:	e771      	b.n	800321a <HAL_RCC_OscConfig+0x16>
 8003336:	e78e      	b.n	8003256 <HAL_RCC_OscConfig+0x52>
 8003338:	2b00      	cmp	r3, #0
 800333a:	d0d8      	beq.n	80032ee <HAL_RCC_OscConfig+0xea>
 800333c:	68e3      	ldr	r3, [r4, #12]
 800333e:	2b00      	cmp	r3, #0
 8003340:	d020      	beq.n	8003384 <HAL_RCC_OscConfig+0x180>
 8003342:	682b      	ldr	r3, [r5, #0]
 8003344:	4a70      	ldr	r2, [pc, #448]	; (8003508 <HAL_RCC_OscConfig+0x304>)
 8003346:	2780      	movs	r7, #128	; 0x80
 8003348:	4013      	ands	r3, r2
 800334a:	6922      	ldr	r2, [r4, #16]
 800334c:	00ff      	lsls	r7, r7, #3
 800334e:	4313      	orrs	r3, r2
 8003350:	602b      	str	r3, [r5, #0]
 8003352:	2380      	movs	r3, #128	; 0x80
 8003354:	682a      	ldr	r2, [r5, #0]
 8003356:	005b      	lsls	r3, r3, #1
 8003358:	4313      	orrs	r3, r2
 800335a:	602b      	str	r3, [r5, #0]
 800335c:	f7ff fe10 	bl	8002f80 <HAL_GetTick>
 8003360:	0006      	movs	r6, r0
 8003362:	682b      	ldr	r3, [r5, #0]
 8003364:	423b      	tst	r3, r7
 8003366:	d007      	beq.n	8003378 <HAL_RCC_OscConfig+0x174>
 8003368:	686a      	ldr	r2, [r5, #4]
 800336a:	6963      	ldr	r3, [r4, #20]
 800336c:	4965      	ldr	r1, [pc, #404]	; (8003504 <HAL_RCC_OscConfig+0x300>)
 800336e:	021b      	lsls	r3, r3, #8
 8003370:	400a      	ands	r2, r1
 8003372:	4313      	orrs	r3, r2
 8003374:	606b      	str	r3, [r5, #4]
 8003376:	e750      	b.n	800321a <HAL_RCC_OscConfig+0x16>
 8003378:	f7ff fe02 	bl	8002f80 <HAL_GetTick>
 800337c:	1b80      	subs	r0, r0, r6
 800337e:	2802      	cmp	r0, #2
 8003380:	d9ef      	bls.n	8003362 <HAL_RCC_OscConfig+0x15e>
 8003382:	e781      	b.n	8003288 <HAL_RCC_OscConfig+0x84>
 8003384:	682b      	ldr	r3, [r5, #0]
 8003386:	4a64      	ldr	r2, [pc, #400]	; (8003518 <HAL_RCC_OscConfig+0x314>)
 8003388:	2780      	movs	r7, #128	; 0x80
 800338a:	4013      	ands	r3, r2
 800338c:	602b      	str	r3, [r5, #0]
 800338e:	f7ff fdf7 	bl	8002f80 <HAL_GetTick>
 8003392:	0006      	movs	r6, r0
 8003394:	00ff      	lsls	r7, r7, #3
 8003396:	682b      	ldr	r3, [r5, #0]
 8003398:	423b      	tst	r3, r7
 800339a:	d100      	bne.n	800339e <HAL_RCC_OscConfig+0x19a>
 800339c:	e73d      	b.n	800321a <HAL_RCC_OscConfig+0x16>
 800339e:	f7ff fdef 	bl	8002f80 <HAL_GetTick>
 80033a2:	1b80      	subs	r0, r0, r6
 80033a4:	2802      	cmp	r0, #2
 80033a6:	d9f6      	bls.n	8003396 <HAL_RCC_OscConfig+0x192>
 80033a8:	e76e      	b.n	8003288 <HAL_RCC_OscConfig+0x84>
 80033aa:	2238      	movs	r2, #56	; 0x38
 80033ac:	4d52      	ldr	r5, [pc, #328]	; (80034f8 <HAL_RCC_OscConfig+0x2f4>)
 80033ae:	68ab      	ldr	r3, [r5, #8]
 80033b0:	4013      	ands	r3, r2
 80033b2:	2b18      	cmp	r3, #24
 80033b4:	d108      	bne.n	80033c8 <HAL_RCC_OscConfig+0x1c4>
 80033b6:	6e2b      	ldr	r3, [r5, #96]	; 0x60
 80033b8:	079b      	lsls	r3, r3, #30
 80033ba:	d400      	bmi.n	80033be <HAL_RCC_OscConfig+0x1ba>
 80033bc:	e731      	b.n	8003222 <HAL_RCC_OscConfig+0x1e>
 80033be:	69a3      	ldr	r3, [r4, #24]
 80033c0:	2b00      	cmp	r3, #0
 80033c2:	d000      	beq.n	80033c6 <HAL_RCC_OscConfig+0x1c2>
 80033c4:	e72d      	b.n	8003222 <HAL_RCC_OscConfig+0x1e>
 80033c6:	e746      	b.n	8003256 <HAL_RCC_OscConfig+0x52>
 80033c8:	69a2      	ldr	r2, [r4, #24]
 80033ca:	2301      	movs	r3, #1
 80033cc:	2a00      	cmp	r2, #0
 80033ce:	d010      	beq.n	80033f2 <HAL_RCC_OscConfig+0x1ee>
 80033d0:	6e2a      	ldr	r2, [r5, #96]	; 0x60
 80033d2:	2702      	movs	r7, #2
 80033d4:	4313      	orrs	r3, r2
 80033d6:	662b      	str	r3, [r5, #96]	; 0x60
 80033d8:	f7ff fdd2 	bl	8002f80 <HAL_GetTick>
 80033dc:	0006      	movs	r6, r0
 80033de:	6e2b      	ldr	r3, [r5, #96]	; 0x60
 80033e0:	423b      	tst	r3, r7
 80033e2:	d000      	beq.n	80033e6 <HAL_RCC_OscConfig+0x1e2>
 80033e4:	e71d      	b.n	8003222 <HAL_RCC_OscConfig+0x1e>
 80033e6:	f7ff fdcb 	bl	8002f80 <HAL_GetTick>
 80033ea:	1b80      	subs	r0, r0, r6
 80033ec:	2802      	cmp	r0, #2
 80033ee:	d9f6      	bls.n	80033de <HAL_RCC_OscConfig+0x1da>
 80033f0:	e74a      	b.n	8003288 <HAL_RCC_OscConfig+0x84>
 80033f2:	6e2a      	ldr	r2, [r5, #96]	; 0x60
 80033f4:	2702      	movs	r7, #2
 80033f6:	439a      	bics	r2, r3
 80033f8:	662a      	str	r2, [r5, #96]	; 0x60
 80033fa:	f7ff fdc1 	bl	8002f80 <HAL_GetTick>
 80033fe:	0006      	movs	r6, r0
 8003400:	6e2b      	ldr	r3, [r5, #96]	; 0x60
 8003402:	423b      	tst	r3, r7
 8003404:	d100      	bne.n	8003408 <HAL_RCC_OscConfig+0x204>
 8003406:	e70c      	b.n	8003222 <HAL_RCC_OscConfig+0x1e>
 8003408:	f7ff fdba 	bl	8002f80 <HAL_GetTick>
 800340c:	1b80      	subs	r0, r0, r6
 800340e:	2802      	cmp	r0, #2
 8003410:	d9f6      	bls.n	8003400 <HAL_RCC_OscConfig+0x1fc>
 8003412:	e739      	b.n	8003288 <HAL_RCC_OscConfig+0x84>
 8003414:	2238      	movs	r2, #56	; 0x38
 8003416:	4d38      	ldr	r5, [pc, #224]	; (80034f8 <HAL_RCC_OscConfig+0x2f4>)
 8003418:	68ab      	ldr	r3, [r5, #8]
 800341a:	4013      	ands	r3, r2
 800341c:	2b20      	cmp	r3, #32
 800341e:	d108      	bne.n	8003432 <HAL_RCC_OscConfig+0x22e>
 8003420:	6deb      	ldr	r3, [r5, #92]	; 0x5c
 8003422:	079b      	lsls	r3, r3, #30
 8003424:	d400      	bmi.n	8003428 <HAL_RCC_OscConfig+0x224>
 8003426:	e700      	b.n	800322a <HAL_RCC_OscConfig+0x26>
 8003428:	68a3      	ldr	r3, [r4, #8]
 800342a:	2b00      	cmp	r3, #0
 800342c:	d000      	beq.n	8003430 <HAL_RCC_OscConfig+0x22c>
 800342e:	e6fc      	b.n	800322a <HAL_RCC_OscConfig+0x26>
 8003430:	e711      	b.n	8003256 <HAL_RCC_OscConfig+0x52>
 8003432:	2280      	movs	r2, #128	; 0x80
 8003434:	2100      	movs	r1, #0
 8003436:	6beb      	ldr	r3, [r5, #60]	; 0x3c
 8003438:	0552      	lsls	r2, r2, #21
 800343a:	9100      	str	r1, [sp, #0]
 800343c:	4213      	tst	r3, r2
 800343e:	d108      	bne.n	8003452 <HAL_RCC_OscConfig+0x24e>
 8003440:	6beb      	ldr	r3, [r5, #60]	; 0x3c
 8003442:	4313      	orrs	r3, r2
 8003444:	63eb      	str	r3, [r5, #60]	; 0x3c
 8003446:	6beb      	ldr	r3, [r5, #60]	; 0x3c
 8003448:	4013      	ands	r3, r2
 800344a:	9303      	str	r3, [sp, #12]
 800344c:	9b03      	ldr	r3, [sp, #12]
 800344e:	2301      	movs	r3, #1
 8003450:	9300      	str	r3, [sp, #0]
 8003452:	2780      	movs	r7, #128	; 0x80
 8003454:	4e31      	ldr	r6, [pc, #196]	; (800351c <HAL_RCC_OscConfig+0x318>)
 8003456:	007f      	lsls	r7, r7, #1
 8003458:	6833      	ldr	r3, [r6, #0]
 800345a:	423b      	tst	r3, r7
 800345c:	d015      	beq.n	800348a <HAL_RCC_OscConfig+0x286>
 800345e:	68a3      	ldr	r3, [r4, #8]
 8003460:	2b01      	cmp	r3, #1
 8003462:	d122      	bne.n	80034aa <HAL_RCC_OscConfig+0x2a6>
 8003464:	6dea      	ldr	r2, [r5, #92]	; 0x5c
 8003466:	4313      	orrs	r3, r2
 8003468:	65eb      	str	r3, [r5, #92]	; 0x5c
 800346a:	f7ff fd89 	bl	8002f80 <HAL_GetTick>
 800346e:	2702      	movs	r7, #2
 8003470:	0006      	movs	r6, r0
 8003472:	6deb      	ldr	r3, [r5, #92]	; 0x5c
 8003474:	423b      	tst	r3, r7
 8003476:	d038      	beq.n	80034ea <HAL_RCC_OscConfig+0x2e6>
 8003478:	9b00      	ldr	r3, [sp, #0]
 800347a:	2b01      	cmp	r3, #1
 800347c:	d000      	beq.n	8003480 <HAL_RCC_OscConfig+0x27c>
 800347e:	e6d4      	b.n	800322a <HAL_RCC_OscConfig+0x26>
 8003480:	6beb      	ldr	r3, [r5, #60]	; 0x3c
 8003482:	4a27      	ldr	r2, [pc, #156]	; (8003520 <HAL_RCC_OscConfig+0x31c>)
 8003484:	4013      	ands	r3, r2
 8003486:	63eb      	str	r3, [r5, #60]	; 0x3c
 8003488:	e6cf      	b.n	800322a <HAL_RCC_OscConfig+0x26>
 800348a:	6833      	ldr	r3, [r6, #0]
 800348c:	433b      	orrs	r3, r7
 800348e:	6033      	str	r3, [r6, #0]
 8003490:	f7ff fd76 	bl	8002f80 <HAL_GetTick>
 8003494:	9001      	str	r0, [sp, #4]
 8003496:	6833      	ldr	r3, [r6, #0]
 8003498:	423b      	tst	r3, r7
 800349a:	d1e0      	bne.n	800345e <HAL_RCC_OscConfig+0x25a>
 800349c:	f7ff fd70 	bl	8002f80 <HAL_GetTick>
 80034a0:	9b01      	ldr	r3, [sp, #4]
 80034a2:	1ac0      	subs	r0, r0, r3
 80034a4:	2802      	cmp	r0, #2
 80034a6:	d9f6      	bls.n	8003496 <HAL_RCC_OscConfig+0x292>
 80034a8:	e6ee      	b.n	8003288 <HAL_RCC_OscConfig+0x84>
 80034aa:	6dea      	ldr	r2, [r5, #92]	; 0x5c
 80034ac:	2b05      	cmp	r3, #5
 80034ae:	d105      	bne.n	80034bc <HAL_RCC_OscConfig+0x2b8>
 80034b0:	3b01      	subs	r3, #1
 80034b2:	4313      	orrs	r3, r2
 80034b4:	65eb      	str	r3, [r5, #92]	; 0x5c
 80034b6:	6dea      	ldr	r2, [r5, #92]	; 0x5c
 80034b8:	2301      	movs	r3, #1
 80034ba:	e7d4      	b.n	8003466 <HAL_RCC_OscConfig+0x262>
 80034bc:	2101      	movs	r1, #1
 80034be:	438a      	bics	r2, r1
 80034c0:	65ea      	str	r2, [r5, #92]	; 0x5c
 80034c2:	6dea      	ldr	r2, [r5, #92]	; 0x5c
 80034c4:	3103      	adds	r1, #3
 80034c6:	438a      	bics	r2, r1
 80034c8:	65ea      	str	r2, [r5, #92]	; 0x5c
 80034ca:	2b00      	cmp	r3, #0
 80034cc:	d1cd      	bne.n	800346a <HAL_RCC_OscConfig+0x266>
 80034ce:	f7ff fd57 	bl	8002f80 <HAL_GetTick>
 80034d2:	2702      	movs	r7, #2
 80034d4:	0006      	movs	r6, r0
 80034d6:	6deb      	ldr	r3, [r5, #92]	; 0x5c
 80034d8:	423b      	tst	r3, r7
 80034da:	d0cd      	beq.n	8003478 <HAL_RCC_OscConfig+0x274>
 80034dc:	f7ff fd50 	bl	8002f80 <HAL_GetTick>
 80034e0:	4b10      	ldr	r3, [pc, #64]	; (8003524 <HAL_RCC_OscConfig+0x320>)
 80034e2:	1b80      	subs	r0, r0, r6
 80034e4:	4298      	cmp	r0, r3
 80034e6:	d9f6      	bls.n	80034d6 <HAL_RCC_OscConfig+0x2d2>
 80034e8:	e6ce      	b.n	8003288 <HAL_RCC_OscConfig+0x84>
 80034ea:	f7ff fd49 	bl	8002f80 <HAL_GetTick>
 80034ee:	4b0d      	ldr	r3, [pc, #52]	; (8003524 <HAL_RCC_OscConfig+0x320>)
 80034f0:	1b80      	subs	r0, r0, r6
 80034f2:	4298      	cmp	r0, r3
 80034f4:	d9bd      	bls.n	8003472 <HAL_RCC_OscConfig+0x26e>
 80034f6:	e6c7      	b.n	8003288 <HAL_RCC_OscConfig+0x84>
 80034f8:	40021000 	.word	0x40021000
 80034fc:	fffeffff 	.word	0xfffeffff
 8003500:	fffbffff 	.word	0xfffbffff
 8003504:	ffff80ff 	.word	0xffff80ff
 8003508:	ffffc7ff 	.word	0xffffc7ff
 800350c:	00f42400 	.word	0x00f42400
 8003510:	20000000 	.word	0x20000000
 8003514:	20000008 	.word	0x20000008
 8003518:	fffffeff 	.word	0xfffffeff
 800351c:	40007000 	.word	0x40007000
 8003520:	efffffff 	.word	0xefffffff
 8003524:	00001388 	.word	0x00001388
 8003528:	2138      	movs	r1, #56	; 0x38
 800352a:	4d3f      	ldr	r5, [pc, #252]	; (8003628 <HAL_RCC_OscConfig+0x424>)
 800352c:	68aa      	ldr	r2, [r5, #8]
 800352e:	400a      	ands	r2, r1
 8003530:	2a10      	cmp	r2, #16
 8003532:	d053      	beq.n	80035dc <HAL_RCC_OscConfig+0x3d8>
 8003534:	4a3d      	ldr	r2, [pc, #244]	; (800362c <HAL_RCC_OscConfig+0x428>)
 8003536:	2b02      	cmp	r3, #2
 8003538:	d138      	bne.n	80035ac <HAL_RCC_OscConfig+0x3a8>
 800353a:	682b      	ldr	r3, [r5, #0]
 800353c:	2780      	movs	r7, #128	; 0x80
 800353e:	4013      	ands	r3, r2
 8003540:	602b      	str	r3, [r5, #0]
 8003542:	f7ff fd1d 	bl	8002f80 <HAL_GetTick>
 8003546:	0006      	movs	r6, r0
 8003548:	04bf      	lsls	r7, r7, #18
 800354a:	682b      	ldr	r3, [r5, #0]
 800354c:	423b      	tst	r3, r7
 800354e:	d127      	bne.n	80035a0 <HAL_RCC_OscConfig+0x39c>
 8003550:	6a61      	ldr	r1, [r4, #36]	; 0x24
 8003552:	6a23      	ldr	r3, [r4, #32]
 8003554:	68ea      	ldr	r2, [r5, #12]
 8003556:	430b      	orrs	r3, r1
 8003558:	4935      	ldr	r1, [pc, #212]	; (8003630 <HAL_RCC_OscConfig+0x42c>)
 800355a:	2680      	movs	r6, #128	; 0x80
 800355c:	400a      	ands	r2, r1
 800355e:	4313      	orrs	r3, r2
 8003560:	6ae2      	ldr	r2, [r4, #44]	; 0x2c
 8003562:	04b6      	lsls	r6, r6, #18
 8003564:	4313      	orrs	r3, r2
 8003566:	6b22      	ldr	r2, [r4, #48]	; 0x30
 8003568:	4313      	orrs	r3, r2
 800356a:	6aa2      	ldr	r2, [r4, #40]	; 0x28
 800356c:	0212      	lsls	r2, r2, #8
 800356e:	4313      	orrs	r3, r2
 8003570:	60eb      	str	r3, [r5, #12]
 8003572:	2380      	movs	r3, #128	; 0x80
 8003574:	682a      	ldr	r2, [r5, #0]
 8003576:	045b      	lsls	r3, r3, #17
 8003578:	4313      	orrs	r3, r2
 800357a:	602b      	str	r3, [r5, #0]
 800357c:	2380      	movs	r3, #128	; 0x80
 800357e:	68ea      	ldr	r2, [r5, #12]
 8003580:	055b      	lsls	r3, r3, #21
 8003582:	4313      	orrs	r3, r2
 8003584:	60eb      	str	r3, [r5, #12]
 8003586:	f7ff fcfb 	bl	8002f80 <HAL_GetTick>
 800358a:	0004      	movs	r4, r0
 800358c:	682b      	ldr	r3, [r5, #0]
 800358e:	4233      	tst	r3, r6
 8003590:	d000      	beq.n	8003594 <HAL_RCC_OscConfig+0x390>
 8003592:	e64e      	b.n	8003232 <HAL_RCC_OscConfig+0x2e>
 8003594:	f7ff fcf4 	bl	8002f80 <HAL_GetTick>
 8003598:	1b00      	subs	r0, r0, r4
 800359a:	2802      	cmp	r0, #2
 800359c:	d9f6      	bls.n	800358c <HAL_RCC_OscConfig+0x388>
 800359e:	e673      	b.n	8003288 <HAL_RCC_OscConfig+0x84>
 80035a0:	f7ff fcee 	bl	8002f80 <HAL_GetTick>
 80035a4:	1b80      	subs	r0, r0, r6
 80035a6:	2802      	cmp	r0, #2
 80035a8:	d9cf      	bls.n	800354a <HAL_RCC_OscConfig+0x346>
 80035aa:	e66d      	b.n	8003288 <HAL_RCC_OscConfig+0x84>
 80035ac:	682b      	ldr	r3, [r5, #0]
 80035ae:	2680      	movs	r6, #128	; 0x80
 80035b0:	4013      	ands	r3, r2
 80035b2:	602b      	str	r3, [r5, #0]
 80035b4:	f7ff fce4 	bl	8002f80 <HAL_GetTick>
 80035b8:	0004      	movs	r4, r0
 80035ba:	04b6      	lsls	r6, r6, #18
 80035bc:	682b      	ldr	r3, [r5, #0]
 80035be:	0018      	movs	r0, r3
 80035c0:	4030      	ands	r0, r6
 80035c2:	4233      	tst	r3, r6
 80035c4:	d104      	bne.n	80035d0 <HAL_RCC_OscConfig+0x3cc>
 80035c6:	68eb      	ldr	r3, [r5, #12]
 80035c8:	4a1a      	ldr	r2, [pc, #104]	; (8003634 <HAL_RCC_OscConfig+0x430>)
 80035ca:	4013      	ands	r3, r2
 80035cc:	60eb      	str	r3, [r5, #12]
 80035ce:	e65c      	b.n	800328a <HAL_RCC_OscConfig+0x86>
 80035d0:	f7ff fcd6 	bl	8002f80 <HAL_GetTick>
 80035d4:	1b00      	subs	r0, r0, r4
 80035d6:	2802      	cmp	r0, #2
 80035d8:	d9f0      	bls.n	80035bc <HAL_RCC_OscConfig+0x3b8>
 80035da:	e655      	b.n	8003288 <HAL_RCC_OscConfig+0x84>
 80035dc:	2b01      	cmp	r3, #1
 80035de:	d100      	bne.n	80035e2 <HAL_RCC_OscConfig+0x3de>
 80035e0:	e639      	b.n	8003256 <HAL_RCC_OscConfig+0x52>
 80035e2:	2203      	movs	r2, #3
 80035e4:	68eb      	ldr	r3, [r5, #12]
 80035e6:	6a21      	ldr	r1, [r4, #32]
 80035e8:	401a      	ands	r2, r3
 80035ea:	428a      	cmp	r2, r1
 80035ec:	d000      	beq.n	80035f0 <HAL_RCC_OscConfig+0x3ec>
 80035ee:	e632      	b.n	8003256 <HAL_RCC_OscConfig+0x52>
 80035f0:	2270      	movs	r2, #112	; 0x70
 80035f2:	6a61      	ldr	r1, [r4, #36]	; 0x24
 80035f4:	401a      	ands	r2, r3
 80035f6:	428a      	cmp	r2, r1
 80035f8:	d000      	beq.n	80035fc <HAL_RCC_OscConfig+0x3f8>
 80035fa:	e62c      	b.n	8003256 <HAL_RCC_OscConfig+0x52>
 80035fc:	21fe      	movs	r1, #254	; 0xfe
 80035fe:	6aa2      	ldr	r2, [r4, #40]	; 0x28
 8003600:	01c9      	lsls	r1, r1, #7
 8003602:	4019      	ands	r1, r3
 8003604:	0212      	lsls	r2, r2, #8
 8003606:	4291      	cmp	r1, r2
 8003608:	d000      	beq.n	800360c <HAL_RCC_OscConfig+0x408>
 800360a:	e624      	b.n	8003256 <HAL_RCC_OscConfig+0x52>
 800360c:	22f8      	movs	r2, #248	; 0xf8
 800360e:	6ae1      	ldr	r1, [r4, #44]	; 0x2c
 8003610:	0392      	lsls	r2, r2, #14
 8003612:	401a      	ands	r2, r3
 8003614:	428a      	cmp	r2, r1
 8003616:	d000      	beq.n	800361a <HAL_RCC_OscConfig+0x416>
 8003618:	e61d      	b.n	8003256 <HAL_RCC_OscConfig+0x52>
 800361a:	6b22      	ldr	r2, [r4, #48]	; 0x30
 800361c:	0f5b      	lsrs	r3, r3, #29
 800361e:	075b      	lsls	r3, r3, #29
 8003620:	4293      	cmp	r3, r2
 8003622:	d100      	bne.n	8003626 <HAL_RCC_OscConfig+0x422>
 8003624:	e605      	b.n	8003232 <HAL_RCC_OscConfig+0x2e>
 8003626:	e616      	b.n	8003256 <HAL_RCC_OscConfig+0x52>
 8003628:	40021000 	.word	0x40021000
 800362c:	feffffff 	.word	0xfeffffff
 8003630:	1fc1808c 	.word	0x1fc1808c
 8003634:	effefffc 	.word	0xeffefffc

08003638 <HAL_RCC_GetSysClockFreq>:
 8003638:	2338      	movs	r3, #56	; 0x38
 800363a:	b570      	push	{r4, r5, r6, lr}
 800363c:	4c1e      	ldr	r4, [pc, #120]	; (80036b8 <HAL_RCC_GetSysClockFreq+0x80>)
 800363e:	68a2      	ldr	r2, [r4, #8]
 8003640:	421a      	tst	r2, r3
 8003642:	d105      	bne.n	8003650 <HAL_RCC_GetSysClockFreq+0x18>
 8003644:	6823      	ldr	r3, [r4, #0]
 8003646:	481d      	ldr	r0, [pc, #116]	; (80036bc <HAL_RCC_GetSysClockFreq+0x84>)
 8003648:	049b      	lsls	r3, r3, #18
 800364a:	0f5b      	lsrs	r3, r3, #29
 800364c:	40d8      	lsrs	r0, r3
 800364e:	bd70      	pop	{r4, r5, r6, pc}
 8003650:	68a2      	ldr	r2, [r4, #8]
 8003652:	401a      	ands	r2, r3
 8003654:	2a08      	cmp	r2, #8
 8003656:	d02a      	beq.n	80036ae <HAL_RCC_GetSysClockFreq+0x76>
 8003658:	68a2      	ldr	r2, [r4, #8]
 800365a:	401a      	ands	r2, r3
 800365c:	2a10      	cmp	r2, #16
 800365e:	d11a      	bne.n	8003696 <HAL_RCC_GetSysClockFreq+0x5e>
 8003660:	68e3      	ldr	r3, [r4, #12]
 8003662:	68e1      	ldr	r1, [r4, #12]
 8003664:	43db      	mvns	r3, r3
 8003666:	0649      	lsls	r1, r1, #25
 8003668:	0f49      	lsrs	r1, r1, #29
 800366a:	257f      	movs	r5, #127	; 0x7f
 800366c:	3101      	adds	r1, #1
 800366e:	079b      	lsls	r3, r3, #30
 8003670:	d10c      	bne.n	800368c <HAL_RCC_GetSysClockFreq+0x54>
 8003672:	68e3      	ldr	r3, [r4, #12]
 8003674:	4812      	ldr	r0, [pc, #72]	; (80036c0 <HAL_RCC_GetSysClockFreq+0x88>)
 8003676:	0a1b      	lsrs	r3, r3, #8
 8003678:	401d      	ands	r5, r3
 800367a:	f7fc fd53 	bl	8000124 <__udivsi3>
 800367e:	68e1      	ldr	r1, [r4, #12]
 8003680:	4368      	muls	r0, r5
 8003682:	0f49      	lsrs	r1, r1, #29
 8003684:	3101      	adds	r1, #1
 8003686:	f7fc fd4d 	bl	8000124 <__udivsi3>
 800368a:	e7e0      	b.n	800364e <HAL_RCC_GetSysClockFreq+0x16>
 800368c:	68e3      	ldr	r3, [r4, #12]
 800368e:	480b      	ldr	r0, [pc, #44]	; (80036bc <HAL_RCC_GetSysClockFreq+0x84>)
 8003690:	0a1b      	lsrs	r3, r3, #8
 8003692:	401d      	ands	r5, r3
 8003694:	e7f1      	b.n	800367a <HAL_RCC_GetSysClockFreq+0x42>
 8003696:	68a2      	ldr	r2, [r4, #8]
 8003698:	401a      	ands	r2, r3
 800369a:	2a20      	cmp	r2, #32
 800369c:	d009      	beq.n	80036b2 <HAL_RCC_GetSysClockFreq+0x7a>
 800369e:	68a2      	ldr	r2, [r4, #8]
 80036a0:	2000      	movs	r0, #0
 80036a2:	4013      	ands	r3, r2
 80036a4:	2b18      	cmp	r3, #24
 80036a6:	d1d2      	bne.n	800364e <HAL_RCC_GetSysClockFreq+0x16>
 80036a8:	20fa      	movs	r0, #250	; 0xfa
 80036aa:	01c0      	lsls	r0, r0, #7
 80036ac:	e7cf      	b.n	800364e <HAL_RCC_GetSysClockFreq+0x16>
 80036ae:	4804      	ldr	r0, [pc, #16]	; (80036c0 <HAL_RCC_GetSysClockFreq+0x88>)
 80036b0:	e7cd      	b.n	800364e <HAL_RCC_GetSysClockFreq+0x16>
 80036b2:	2080      	movs	r0, #128	; 0x80
 80036b4:	0200      	lsls	r0, r0, #8
 80036b6:	e7ca      	b.n	800364e <HAL_RCC_GetSysClockFreq+0x16>
 80036b8:	40021000 	.word	0x40021000
 80036bc:	00f42400 	.word	0x00f42400
 80036c0:	007a1200 	.word	0x007a1200

080036c4 <HAL_RCC_ClockConfig>:
 80036c4:	b5f7      	push	{r0, r1, r2, r4, r5, r6, r7, lr}
 80036c6:	0004      	movs	r4, r0
 80036c8:	000d      	movs	r5, r1
 80036ca:	2800      	cmp	r0, #0
 80036cc:	d101      	bne.n	80036d2 <HAL_RCC_ClockConfig+0xe>
 80036ce:	2001      	movs	r0, #1
 80036d0:	bdfe      	pop	{r1, r2, r3, r4, r5, r6, r7, pc}
 80036d2:	2707      	movs	r7, #7
 80036d4:	4e4a      	ldr	r6, [pc, #296]	; (8003800 <HAL_RCC_ClockConfig+0x13c>)
 80036d6:	6833      	ldr	r3, [r6, #0]
 80036d8:	403b      	ands	r3, r7
 80036da:	428b      	cmp	r3, r1
 80036dc:	d32a      	bcc.n	8003734 <HAL_RCC_ClockConfig+0x70>
 80036de:	6821      	ldr	r1, [r4, #0]
 80036e0:	078b      	lsls	r3, r1, #30
 80036e2:	d43b      	bmi.n	800375c <HAL_RCC_ClockConfig+0x98>
 80036e4:	07cb      	lsls	r3, r1, #31
 80036e6:	d448      	bmi.n	800377a <HAL_RCC_ClockConfig+0xb6>
 80036e8:	2707      	movs	r7, #7
 80036ea:	6833      	ldr	r3, [r6, #0]
 80036ec:	403b      	ands	r3, r7
 80036ee:	42ab      	cmp	r3, r5
 80036f0:	d90a      	bls.n	8003708 <HAL_RCC_ClockConfig+0x44>
 80036f2:	6833      	ldr	r3, [r6, #0]
 80036f4:	43bb      	bics	r3, r7
 80036f6:	432b      	orrs	r3, r5
 80036f8:	6033      	str	r3, [r6, #0]
 80036fa:	f7ff fc41 	bl	8002f80 <HAL_GetTick>
 80036fe:	9001      	str	r0, [sp, #4]
 8003700:	6833      	ldr	r3, [r6, #0]
 8003702:	403b      	ands	r3, r7
 8003704:	42ab      	cmp	r3, r5
 8003706:	d16b      	bne.n	80037e0 <HAL_RCC_ClockConfig+0x11c>
 8003708:	6823      	ldr	r3, [r4, #0]
 800370a:	4d3e      	ldr	r5, [pc, #248]	; (8003804 <HAL_RCC_ClockConfig+0x140>)
 800370c:	075b      	lsls	r3, r3, #29
 800370e:	d46f      	bmi.n	80037f0 <HAL_RCC_ClockConfig+0x12c>
 8003710:	f7ff ff92 	bl	8003638 <HAL_RCC_GetSysClockFreq>
 8003714:	68ab      	ldr	r3, [r5, #8]
 8003716:	4a3c      	ldr	r2, [pc, #240]	; (8003808 <HAL_RCC_ClockConfig+0x144>)
 8003718:	051b      	lsls	r3, r3, #20
 800371a:	0f1b      	lsrs	r3, r3, #28
 800371c:	009b      	lsls	r3, r3, #2
 800371e:	589b      	ldr	r3, [r3, r2]
 8003720:	221f      	movs	r2, #31
 8003722:	4013      	ands	r3, r2
 8003724:	40d8      	lsrs	r0, r3
 8003726:	4b39      	ldr	r3, [pc, #228]	; (800380c <HAL_RCC_ClockConfig+0x148>)
 8003728:	6018      	str	r0, [r3, #0]
 800372a:	4b39      	ldr	r3, [pc, #228]	; (8003810 <HAL_RCC_ClockConfig+0x14c>)
 800372c:	6818      	ldr	r0, [r3, #0]
 800372e:	f7ff fbdf 	bl	8002ef0 <HAL_InitTick>
 8003732:	e7cd      	b.n	80036d0 <HAL_RCC_ClockConfig+0xc>
 8003734:	6833      	ldr	r3, [r6, #0]
 8003736:	43bb      	bics	r3, r7
 8003738:	430b      	orrs	r3, r1
 800373a:	6033      	str	r3, [r6, #0]
 800373c:	f7ff fc20 	bl	8002f80 <HAL_GetTick>
 8003740:	9001      	str	r0, [sp, #4]
 8003742:	6833      	ldr	r3, [r6, #0]
 8003744:	403b      	ands	r3, r7
 8003746:	42ab      	cmp	r3, r5
 8003748:	d0c9      	beq.n	80036de <HAL_RCC_ClockConfig+0x1a>
 800374a:	f7ff fc19 	bl	8002f80 <HAL_GetTick>
 800374e:	9b01      	ldr	r3, [sp, #4]
 8003750:	1ac0      	subs	r0, r0, r3
 8003752:	4b30      	ldr	r3, [pc, #192]	; (8003814 <HAL_RCC_ClockConfig+0x150>)
 8003754:	4298      	cmp	r0, r3
 8003756:	d9f4      	bls.n	8003742 <HAL_RCC_ClockConfig+0x7e>
 8003758:	2003      	movs	r0, #3
 800375a:	e7b9      	b.n	80036d0 <HAL_RCC_ClockConfig+0xc>
 800375c:	4a29      	ldr	r2, [pc, #164]	; (8003804 <HAL_RCC_ClockConfig+0x140>)
 800375e:	074b      	lsls	r3, r1, #29
 8003760:	d504      	bpl.n	800376c <HAL_RCC_ClockConfig+0xa8>
 8003762:	23e0      	movs	r3, #224	; 0xe0
 8003764:	6890      	ldr	r0, [r2, #8]
 8003766:	01db      	lsls	r3, r3, #7
 8003768:	4303      	orrs	r3, r0
 800376a:	6093      	str	r3, [r2, #8]
 800376c:	6893      	ldr	r3, [r2, #8]
 800376e:	482a      	ldr	r0, [pc, #168]	; (8003818 <HAL_RCC_ClockConfig+0x154>)
 8003770:	4003      	ands	r3, r0
 8003772:	68a0      	ldr	r0, [r4, #8]
 8003774:	4303      	orrs	r3, r0
 8003776:	6093      	str	r3, [r2, #8]
 8003778:	e7b4      	b.n	80036e4 <HAL_RCC_ClockConfig+0x20>
 800377a:	6862      	ldr	r2, [r4, #4]
 800377c:	4f21      	ldr	r7, [pc, #132]	; (8003804 <HAL_RCC_ClockConfig+0x140>)
 800377e:	2a01      	cmp	r2, #1
 8003780:	d119      	bne.n	80037b6 <HAL_RCC_ClockConfig+0xf2>
 8003782:	683b      	ldr	r3, [r7, #0]
 8003784:	039b      	lsls	r3, r3, #14
 8003786:	d5a2      	bpl.n	80036ce <HAL_RCC_ClockConfig+0xa>
 8003788:	2107      	movs	r1, #7
 800378a:	68bb      	ldr	r3, [r7, #8]
 800378c:	438b      	bics	r3, r1
 800378e:	4313      	orrs	r3, r2
 8003790:	60bb      	str	r3, [r7, #8]
 8003792:	f7ff fbf5 	bl	8002f80 <HAL_GetTick>
 8003796:	9001      	str	r0, [sp, #4]
 8003798:	2338      	movs	r3, #56	; 0x38
 800379a:	68ba      	ldr	r2, [r7, #8]
 800379c:	401a      	ands	r2, r3
 800379e:	6863      	ldr	r3, [r4, #4]
 80037a0:	00db      	lsls	r3, r3, #3
 80037a2:	429a      	cmp	r2, r3
 80037a4:	d0a0      	beq.n	80036e8 <HAL_RCC_ClockConfig+0x24>
 80037a6:	f7ff fbeb 	bl	8002f80 <HAL_GetTick>
 80037aa:	9b01      	ldr	r3, [sp, #4]
 80037ac:	1ac0      	subs	r0, r0, r3
 80037ae:	4b19      	ldr	r3, [pc, #100]	; (8003814 <HAL_RCC_ClockConfig+0x150>)
 80037b0:	4298      	cmp	r0, r3
 80037b2:	d9f1      	bls.n	8003798 <HAL_RCC_ClockConfig+0xd4>
 80037b4:	e7d0      	b.n	8003758 <HAL_RCC_ClockConfig+0x94>
 80037b6:	2a02      	cmp	r2, #2
 80037b8:	d103      	bne.n	80037c2 <HAL_RCC_ClockConfig+0xfe>
 80037ba:	683b      	ldr	r3, [r7, #0]
 80037bc:	019b      	lsls	r3, r3, #6
 80037be:	d4e3      	bmi.n	8003788 <HAL_RCC_ClockConfig+0xc4>
 80037c0:	e785      	b.n	80036ce <HAL_RCC_ClockConfig+0xa>
 80037c2:	2a00      	cmp	r2, #0
 80037c4:	d103      	bne.n	80037ce <HAL_RCC_ClockConfig+0x10a>
 80037c6:	683b      	ldr	r3, [r7, #0]
 80037c8:	055b      	lsls	r3, r3, #21
 80037ca:	d4dd      	bmi.n	8003788 <HAL_RCC_ClockConfig+0xc4>
 80037cc:	e77f      	b.n	80036ce <HAL_RCC_ClockConfig+0xa>
 80037ce:	2302      	movs	r3, #2
 80037d0:	2a03      	cmp	r2, #3
 80037d2:	d103      	bne.n	80037dc <HAL_RCC_ClockConfig+0x118>
 80037d4:	6e39      	ldr	r1, [r7, #96]	; 0x60
 80037d6:	4219      	tst	r1, r3
 80037d8:	d1d6      	bne.n	8003788 <HAL_RCC_ClockConfig+0xc4>
 80037da:	e778      	b.n	80036ce <HAL_RCC_ClockConfig+0xa>
 80037dc:	6df9      	ldr	r1, [r7, #92]	; 0x5c
 80037de:	e7fa      	b.n	80037d6 <HAL_RCC_ClockConfig+0x112>
 80037e0:	f7ff fbce 	bl	8002f80 <HAL_GetTick>
 80037e4:	9b01      	ldr	r3, [sp, #4]
 80037e6:	1ac0      	subs	r0, r0, r3
 80037e8:	4b0a      	ldr	r3, [pc, #40]	; (8003814 <HAL_RCC_ClockConfig+0x150>)
 80037ea:	4298      	cmp	r0, r3
 80037ec:	d988      	bls.n	8003700 <HAL_RCC_ClockConfig+0x3c>
 80037ee:	e7b3      	b.n	8003758 <HAL_RCC_ClockConfig+0x94>
 80037f0:	68ab      	ldr	r3, [r5, #8]
 80037f2:	4a0a      	ldr	r2, [pc, #40]	; (800381c <HAL_RCC_ClockConfig+0x158>)
 80037f4:	4013      	ands	r3, r2
 80037f6:	68e2      	ldr	r2, [r4, #12]
 80037f8:	4313      	orrs	r3, r2
 80037fa:	60ab      	str	r3, [r5, #8]
 80037fc:	e788      	b.n	8003710 <HAL_RCC_ClockConfig+0x4c>
 80037fe:	46c0      	nop			; (mov r8, r8)
 8003800:	40022000 	.word	0x40022000
 8003804:	40021000 	.word	0x40021000
 8003808:	0800466c 	.word	0x0800466c
 800380c:	20000000 	.word	0x20000000
 8003810:	20000008 	.word	0x20000008
 8003814:	00001388 	.word	0x00001388
 8003818:	fffff0ff 	.word	0xfffff0ff
 800381c:	ffff8fff 	.word	0xffff8fff

08003820 <SPI_WaitFifoStateUntilTimeout.constprop.0>:
 8003820:	b5f0      	push	{r4, r5, r6, r7, lr}
 8003822:	0017      	movs	r7, r2
 8003824:	2200      	movs	r2, #0
 8003826:	b085      	sub	sp, #20
 8003828:	001d      	movs	r5, r3
 800382a:	ab02      	add	r3, sp, #8
 800382c:	70da      	strb	r2, [r3, #3]
 800382e:	0004      	movs	r4, r0
 8003830:	000e      	movs	r6, r1
 8003832:	f7ff fba5 	bl	8002f80 <HAL_GetTick>
 8003836:	19ed      	adds	r5, r5, r7
 8003838:	1a2d      	subs	r5, r5, r0
 800383a:	f7ff fba1 	bl	8002f80 <HAL_GetTick>
 800383e:	2223      	movs	r2, #35	; 0x23
 8003840:	6823      	ldr	r3, [r4, #0]
 8003842:	9000      	str	r0, [sp, #0]
 8003844:	9301      	str	r3, [sp, #4]
 8003846:	4b2a      	ldr	r3, [pc, #168]	; (80038f0 <SPI_WaitFifoStateUntilTimeout.constprop.0+0xd0>)
 8003848:	681b      	ldr	r3, [r3, #0]
 800384a:	4353      	muls	r3, r2
 800384c:	0d1b      	lsrs	r3, r3, #20
 800384e:	436b      	muls	r3, r5
 8003850:	9303      	str	r3, [sp, #12]
 8003852:	6821      	ldr	r1, [r4, #0]
 8003854:	ab02      	add	r3, sp, #8
 8003856:	1cda      	adds	r2, r3, #3
 8003858:	688b      	ldr	r3, [r1, #8]
 800385a:	0018      	movs	r0, r3
 800385c:	4030      	ands	r0, r6
 800385e:	4233      	tst	r3, r6
 8003860:	d03b      	beq.n	80038da <SPI_WaitFifoStateUntilTimeout.constprop.0+0xba>
 8003862:	23c0      	movs	r3, #192	; 0xc0
 8003864:	00db      	lsls	r3, r3, #3
 8003866:	429e      	cmp	r6, r3
 8003868:	d104      	bne.n	8003874 <SPI_WaitFifoStateUntilTimeout.constprop.0+0x54>
 800386a:	9b01      	ldr	r3, [sp, #4]
 800386c:	7b1b      	ldrb	r3, [r3, #12]
 800386e:	b2db      	uxtb	r3, r3
 8003870:	7013      	strb	r3, [r2, #0]
 8003872:	7813      	ldrb	r3, [r2, #0]
 8003874:	1c7b      	adds	r3, r7, #1
 8003876:	d0ef      	beq.n	8003858 <SPI_WaitFifoStateUntilTimeout.constprop.0+0x38>
 8003878:	f7ff fb82 	bl	8002f80 <HAL_GetTick>
 800387c:	9b00      	ldr	r3, [sp, #0]
 800387e:	1ac0      	subs	r0, r0, r3
 8003880:	42a8      	cmp	r0, r5
 8003882:	d32c      	bcc.n	80038de <SPI_WaitFifoStateUntilTimeout.constprop.0+0xbe>
 8003884:	21e0      	movs	r1, #224	; 0xe0
 8003886:	6823      	ldr	r3, [r4, #0]
 8003888:	685a      	ldr	r2, [r3, #4]
 800388a:	438a      	bics	r2, r1
 800388c:	605a      	str	r2, [r3, #4]
 800388e:	2282      	movs	r2, #130	; 0x82
 8003890:	6861      	ldr	r1, [r4, #4]
 8003892:	0052      	lsls	r2, r2, #1
 8003894:	4291      	cmp	r1, r2
 8003896:	d10c      	bne.n	80038b2 <SPI_WaitFifoStateUntilTimeout.constprop.0+0x92>
 8003898:	2180      	movs	r1, #128	; 0x80
 800389a:	68a2      	ldr	r2, [r4, #8]
 800389c:	0209      	lsls	r1, r1, #8
 800389e:	428a      	cmp	r2, r1
 80038a0:	d003      	beq.n	80038aa <SPI_WaitFifoStateUntilTimeout.constprop.0+0x8a>
 80038a2:	2180      	movs	r1, #128	; 0x80
 80038a4:	00c9      	lsls	r1, r1, #3
 80038a6:	428a      	cmp	r2, r1
 80038a8:	d103      	bne.n	80038b2 <SPI_WaitFifoStateUntilTimeout.constprop.0+0x92>
 80038aa:	2140      	movs	r1, #64	; 0x40
 80038ac:	681a      	ldr	r2, [r3, #0]
 80038ae:	438a      	bics	r2, r1
 80038b0:	601a      	str	r2, [r3, #0]
 80038b2:	2180      	movs	r1, #128	; 0x80
 80038b4:	6aa2      	ldr	r2, [r4, #40]	; 0x28
 80038b6:	0189      	lsls	r1, r1, #6
 80038b8:	428a      	cmp	r2, r1
 80038ba:	d106      	bne.n	80038ca <SPI_WaitFifoStateUntilTimeout.constprop.0+0xaa>
 80038bc:	6819      	ldr	r1, [r3, #0]
 80038be:	480d      	ldr	r0, [pc, #52]	; (80038f4 <SPI_WaitFifoStateUntilTimeout.constprop.0+0xd4>)
 80038c0:	4001      	ands	r1, r0
 80038c2:	6019      	str	r1, [r3, #0]
 80038c4:	6819      	ldr	r1, [r3, #0]
 80038c6:	430a      	orrs	r2, r1
 80038c8:	601a      	str	r2, [r3, #0]
 80038ca:	0023      	movs	r3, r4
 80038cc:	2201      	movs	r2, #1
 80038ce:	335d      	adds	r3, #93	; 0x5d
 80038d0:	701a      	strb	r2, [r3, #0]
 80038d2:	2300      	movs	r3, #0
 80038d4:	2003      	movs	r0, #3
 80038d6:	345c      	adds	r4, #92	; 0x5c
 80038d8:	7023      	strb	r3, [r4, #0]
 80038da:	b005      	add	sp, #20
 80038dc:	bdf0      	pop	{r4, r5, r6, r7, pc}
 80038de:	9b03      	ldr	r3, [sp, #12]
 80038e0:	1e5a      	subs	r2, r3, #1
 80038e2:	4193      	sbcs	r3, r2
 80038e4:	425b      	negs	r3, r3
 80038e6:	401d      	ands	r5, r3
 80038e8:	9b03      	ldr	r3, [sp, #12]
 80038ea:	3b01      	subs	r3, #1
 80038ec:	e7b0      	b.n	8003850 <SPI_WaitFifoStateUntilTimeout.constprop.0+0x30>
 80038ee:	46c0      	nop			; (mov r8, r8)
 80038f0:	20000000 	.word	0x20000000
 80038f4:	ffffdfff 	.word	0xffffdfff

080038f8 <SPI_WaitFlagStateUntilTimeout.constprop.0>:
 80038f8:	b5f0      	push	{r4, r5, r6, r7, lr}
 80038fa:	000e      	movs	r6, r1
 80038fc:	b085      	sub	sp, #20
 80038fe:	0015      	movs	r5, r2
 8003900:	0004      	movs	r4, r0
 8003902:	f7ff fb3d 	bl	8002f80 <HAL_GetTick>
 8003906:	19ad      	adds	r5, r5, r6
 8003908:	1a2d      	subs	r5, r5, r0
 800390a:	f7ff fb39 	bl	8002f80 <HAL_GetTick>
 800390e:	2780      	movs	r7, #128	; 0x80
 8003910:	4b25      	ldr	r3, [pc, #148]	; (80039a8 <SPI_WaitFlagStateUntilTimeout.constprop.0+0xb0>)
 8003912:	9001      	str	r0, [sp, #4]
 8003914:	681b      	ldr	r3, [r3, #0]
 8003916:	015b      	lsls	r3, r3, #5
 8003918:	0d1b      	lsrs	r3, r3, #20
 800391a:	436b      	muls	r3, r5
 800391c:	9303      	str	r3, [sp, #12]
 800391e:	6822      	ldr	r2, [r4, #0]
 8003920:	6893      	ldr	r3, [r2, #8]
 8003922:	0018      	movs	r0, r3
 8003924:	4038      	ands	r0, r7
 8003926:	423b      	tst	r3, r7
 8003928:	d032      	beq.n	8003990 <SPI_WaitFlagStateUntilTimeout.constprop.0+0x98>
 800392a:	1c73      	adds	r3, r6, #1
 800392c:	d0f8      	beq.n	8003920 <SPI_WaitFlagStateUntilTimeout.constprop.0+0x28>
 800392e:	f7ff fb27 	bl	8002f80 <HAL_GetTick>
 8003932:	9b01      	ldr	r3, [sp, #4]
 8003934:	1ac0      	subs	r0, r0, r3
 8003936:	42a8      	cmp	r0, r5
 8003938:	d32c      	bcc.n	8003994 <SPI_WaitFlagStateUntilTimeout.constprop.0+0x9c>
 800393a:	21e0      	movs	r1, #224	; 0xe0
 800393c:	6823      	ldr	r3, [r4, #0]
 800393e:	685a      	ldr	r2, [r3, #4]
 8003940:	438a      	bics	r2, r1
 8003942:	605a      	str	r2, [r3, #4]
 8003944:	2282      	movs	r2, #130	; 0x82
 8003946:	6861      	ldr	r1, [r4, #4]
 8003948:	0052      	lsls	r2, r2, #1
 800394a:	4291      	cmp	r1, r2
 800394c:	d10c      	bne.n	8003968 <SPI_WaitFlagStateUntilTimeout.constprop.0+0x70>
 800394e:	2180      	movs	r1, #128	; 0x80
 8003950:	68a2      	ldr	r2, [r4, #8]
 8003952:	0209      	lsls	r1, r1, #8
 8003954:	428a      	cmp	r2, r1
 8003956:	d003      	beq.n	8003960 <SPI_WaitFlagStateUntilTimeout.constprop.0+0x68>
 8003958:	2180      	movs	r1, #128	; 0x80
 800395a:	00c9      	lsls	r1, r1, #3
 800395c:	428a      	cmp	r2, r1
 800395e:	d103      	bne.n	8003968 <SPI_WaitFlagStateUntilTimeout.constprop.0+0x70>
 8003960:	2140      	movs	r1, #64	; 0x40
 8003962:	681a      	ldr	r2, [r3, #0]
 8003964:	438a      	bics	r2, r1
 8003966:	601a      	str	r2, [r3, #0]
 8003968:	2180      	movs	r1, #128	; 0x80
 800396a:	6aa2      	ldr	r2, [r4, #40]	; 0x28
 800396c:	0189      	lsls	r1, r1, #6
 800396e:	428a      	cmp	r2, r1
 8003970:	d106      	bne.n	8003980 <SPI_WaitFlagStateUntilTimeout.constprop.0+0x88>
 8003972:	6819      	ldr	r1, [r3, #0]
 8003974:	480d      	ldr	r0, [pc, #52]	; (80039ac <SPI_WaitFlagStateUntilTimeout.constprop.0+0xb4>)
 8003976:	4001      	ands	r1, r0
 8003978:	6019      	str	r1, [r3, #0]
 800397a:	6819      	ldr	r1, [r3, #0]
 800397c:	430a      	orrs	r2, r1
 800397e:	601a      	str	r2, [r3, #0]
 8003980:	0023      	movs	r3, r4
 8003982:	2201      	movs	r2, #1
 8003984:	335d      	adds	r3, #93	; 0x5d
 8003986:	701a      	strb	r2, [r3, #0]
 8003988:	2300      	movs	r3, #0
 800398a:	2003      	movs	r0, #3
 800398c:	345c      	adds	r4, #92	; 0x5c
 800398e:	7023      	strb	r3, [r4, #0]
 8003990:	b005      	add	sp, #20
 8003992:	bdf0      	pop	{r4, r5, r6, r7, pc}
 8003994:	9b03      	ldr	r3, [sp, #12]
 8003996:	1e5a      	subs	r2, r3, #1
 8003998:	4193      	sbcs	r3, r2
 800399a:	425b      	negs	r3, r3
 800399c:	401d      	ands	r5, r3
 800399e:	9b03      	ldr	r3, [sp, #12]
 80039a0:	3b01      	subs	r3, #1
 80039a2:	9303      	str	r3, [sp, #12]
 80039a4:	e7bb      	b.n	800391e <SPI_WaitFlagStateUntilTimeout.constprop.0+0x26>
 80039a6:	46c0      	nop			; (mov r8, r8)
 80039a8:	20000000 	.word	0x20000000
 80039ac:	ffffdfff 	.word	0xffffdfff

080039b0 <SPI_EndRxTxTransaction>:
 80039b0:	b570      	push	{r4, r5, r6, lr}
 80039b2:	0013      	movs	r3, r2
 80039b4:	000d      	movs	r5, r1
 80039b6:	0016      	movs	r6, r2
 80039b8:	000a      	movs	r2, r1
 80039ba:	21c0      	movs	r1, #192	; 0xc0
 80039bc:	0149      	lsls	r1, r1, #5
 80039be:	0004      	movs	r4, r0
 80039c0:	f7ff ff2e 	bl	8003820 <SPI_WaitFifoStateUntilTimeout.constprop.0>
 80039c4:	2800      	cmp	r0, #0
 80039c6:	d005      	beq.n	80039d4 <SPI_EndRxTxTransaction+0x24>
 80039c8:	2320      	movs	r3, #32
 80039ca:	6e22      	ldr	r2, [r4, #96]	; 0x60
 80039cc:	2003      	movs	r0, #3
 80039ce:	4313      	orrs	r3, r2
 80039d0:	6623      	str	r3, [r4, #96]	; 0x60
 80039d2:	e00f      	b.n	80039f4 <SPI_EndRxTxTransaction+0x44>
 80039d4:	0032      	movs	r2, r6
 80039d6:	0029      	movs	r1, r5
 80039d8:	0020      	movs	r0, r4
 80039da:	f7ff ff8d 	bl	80038f8 <SPI_WaitFlagStateUntilTimeout.constprop.0>
 80039de:	2800      	cmp	r0, #0
 80039e0:	d1f2      	bne.n	80039c8 <SPI_EndRxTxTransaction+0x18>
 80039e2:	21c0      	movs	r1, #192	; 0xc0
 80039e4:	0033      	movs	r3, r6
 80039e6:	002a      	movs	r2, r5
 80039e8:	0020      	movs	r0, r4
 80039ea:	00c9      	lsls	r1, r1, #3
 80039ec:	f7ff ff18 	bl	8003820 <SPI_WaitFifoStateUntilTimeout.constprop.0>
 80039f0:	2800      	cmp	r0, #0
 80039f2:	d1e9      	bne.n	80039c8 <SPI_EndRxTxTransaction+0x18>
 80039f4:	bd70      	pop	{r4, r5, r6, pc}
	...

080039f8 <HAL_SPI_Init>:
 80039f8:	b5f8      	push	{r3, r4, r5, r6, r7, lr}
 80039fa:	0004      	movs	r4, r0
 80039fc:	2001      	movs	r0, #1
 80039fe:	2c00      	cmp	r4, #0
 8003a00:	d067      	beq.n	8003ad2 <HAL_SPI_Init+0xda>
 8003a02:	6a63      	ldr	r3, [r4, #36]	; 0x24
 8003a04:	2b00      	cmp	r3, #0
 8003a06:	d165      	bne.n	8003ad4 <HAL_SPI_Init+0xdc>
 8003a08:	2282      	movs	r2, #130	; 0x82
 8003a0a:	6861      	ldr	r1, [r4, #4]
 8003a0c:	0052      	lsls	r2, r2, #1
 8003a0e:	4291      	cmp	r1, r2
 8003a10:	d000      	beq.n	8003a14 <HAL_SPI_Init+0x1c>
 8003a12:	61e3      	str	r3, [r4, #28]
 8003a14:	2300      	movs	r3, #0
 8003a16:	0025      	movs	r5, r4
 8003a18:	62a3      	str	r3, [r4, #40]	; 0x28
 8003a1a:	355d      	adds	r5, #93	; 0x5d
 8003a1c:	782b      	ldrb	r3, [r5, #0]
 8003a1e:	b2da      	uxtb	r2, r3
 8003a20:	2b00      	cmp	r3, #0
 8003a22:	d105      	bne.n	8003a30 <HAL_SPI_Init+0x38>
 8003a24:	0023      	movs	r3, r4
 8003a26:	335c      	adds	r3, #92	; 0x5c
 8003a28:	0020      	movs	r0, r4
 8003a2a:	701a      	strb	r2, [r3, #0]
 8003a2c:	f7ff f8f4 	bl	8002c18 <HAL_SPI_MspInit>
 8003a30:	2302      	movs	r3, #2
 8003a32:	2140      	movs	r1, #64	; 0x40
 8003a34:	702b      	strb	r3, [r5, #0]
 8003a36:	6822      	ldr	r2, [r4, #0]
 8003a38:	68e5      	ldr	r5, [r4, #12]
 8003a3a:	6813      	ldr	r3, [r2, #0]
 8003a3c:	438b      	bics	r3, r1
 8003a3e:	21e0      	movs	r1, #224	; 0xe0
 8003a40:	6013      	str	r3, [r2, #0]
 8003a42:	00c9      	lsls	r1, r1, #3
 8003a44:	2300      	movs	r3, #0
 8003a46:	428d      	cmp	r5, r1
 8003a48:	d848      	bhi.n	8003adc <HAL_SPI_Init+0xe4>
 8003a4a:	2080      	movs	r0, #128	; 0x80
 8003a4c:	0140      	lsls	r0, r0, #5
 8003a4e:	428d      	cmp	r5, r1
 8003a50:	d000      	beq.n	8003a54 <HAL_SPI_Init+0x5c>
 8003a52:	62a3      	str	r3, [r4, #40]	; 0x28
 8003a54:	2382      	movs	r3, #130	; 0x82
 8003a56:	6866      	ldr	r6, [r4, #4]
 8003a58:	005b      	lsls	r3, r3, #1
 8003a5a:	4033      	ands	r3, r6
 8003a5c:	2684      	movs	r6, #132	; 0x84
 8003a5e:	68a7      	ldr	r7, [r4, #8]
 8003a60:	0236      	lsls	r6, r6, #8
 8003a62:	403e      	ands	r6, r7
 8003a64:	4333      	orrs	r3, r6
 8003a66:	2602      	movs	r6, #2
 8003a68:	6927      	ldr	r7, [r4, #16]
 8003a6a:	69a1      	ldr	r1, [r4, #24]
 8003a6c:	403e      	ands	r6, r7
 8003a6e:	4333      	orrs	r3, r6
 8003a70:	2601      	movs	r6, #1
 8003a72:	6967      	ldr	r7, [r4, #20]
 8003a74:	46b4      	mov	ip, r6
 8003a76:	4037      	ands	r7, r6
 8003a78:	433b      	orrs	r3, r7
 8003a7a:	2780      	movs	r7, #128	; 0x80
 8003a7c:	00bf      	lsls	r7, r7, #2
 8003a7e:	400f      	ands	r7, r1
 8003a80:	433b      	orrs	r3, r7
 8003a82:	2738      	movs	r7, #56	; 0x38
 8003a84:	69e6      	ldr	r6, [r4, #28]
 8003a86:	0c09      	lsrs	r1, r1, #16
 8003a88:	4037      	ands	r7, r6
 8003a8a:	433b      	orrs	r3, r7
 8003a8c:	2780      	movs	r7, #128	; 0x80
 8003a8e:	6a26      	ldr	r6, [r4, #32]
 8003a90:	4037      	ands	r7, r6
 8003a92:	433b      	orrs	r3, r7
 8003a94:	2780      	movs	r7, #128	; 0x80
 8003a96:	6aa6      	ldr	r6, [r4, #40]	; 0x28
 8003a98:	01bf      	lsls	r7, r7, #6
 8003a9a:	4037      	ands	r7, r6
 8003a9c:	433b      	orrs	r3, r7
 8003a9e:	6013      	str	r3, [r2, #0]
 8003aa0:	2310      	movs	r3, #16
 8003aa2:	2708      	movs	r7, #8
 8003aa4:	6a66      	ldr	r6, [r4, #36]	; 0x24
 8003aa6:	4033      	ands	r3, r6
 8003aa8:	6b66      	ldr	r6, [r4, #52]	; 0x34
 8003aaa:	4037      	ands	r7, r6
 8003aac:	433b      	orrs	r3, r7
 8003aae:	27f0      	movs	r7, #240	; 0xf0
 8003ab0:	013f      	lsls	r7, r7, #4
 8003ab2:	403d      	ands	r5, r7
 8003ab4:	431d      	orrs	r5, r3
 8003ab6:	2304      	movs	r3, #4
 8003ab8:	4019      	ands	r1, r3
 8003aba:	4329      	orrs	r1, r5
 8003abc:	4308      	orrs	r0, r1
 8003abe:	6050      	str	r0, [r2, #4]
 8003ac0:	69d3      	ldr	r3, [r2, #28]
 8003ac2:	4908      	ldr	r1, [pc, #32]	; (8003ae4 <HAL_SPI_Init+0xec>)
 8003ac4:	2000      	movs	r0, #0
 8003ac6:	400b      	ands	r3, r1
 8003ac8:	61d3      	str	r3, [r2, #28]
 8003aca:	4663      	mov	r3, ip
 8003acc:	6620      	str	r0, [r4, #96]	; 0x60
 8003ace:	345d      	adds	r4, #93	; 0x5d
 8003ad0:	7023      	strb	r3, [r4, #0]
 8003ad2:	bdf8      	pop	{r3, r4, r5, r6, r7, pc}
 8003ad4:	2300      	movs	r3, #0
 8003ad6:	6123      	str	r3, [r4, #16]
 8003ad8:	6163      	str	r3, [r4, #20]
 8003ada:	e79b      	b.n	8003a14 <HAL_SPI_Init+0x1c>
 8003adc:	21f0      	movs	r1, #240	; 0xf0
 8003ade:	0018      	movs	r0, r3
 8003ae0:	0109      	lsls	r1, r1, #4
 8003ae2:	e7b4      	b.n	8003a4e <HAL_SPI_Init+0x56>
 8003ae4:	fffff7ff 	.word	0xfffff7ff

08003ae8 <HAL_SPI_Transmit>:
 8003ae8:	b5f0      	push	{r4, r5, r6, r7, lr}
 8003aea:	001d      	movs	r5, r3
 8003aec:	0003      	movs	r3, r0
 8003aee:	b085      	sub	sp, #20
 8003af0:	335c      	adds	r3, #92	; 0x5c
 8003af2:	9301      	str	r3, [sp, #4]
 8003af4:	781b      	ldrb	r3, [r3, #0]
 8003af6:	0004      	movs	r4, r0
 8003af8:	000e      	movs	r6, r1
 8003afa:	0017      	movs	r7, r2
 8003afc:	2002      	movs	r0, #2
 8003afe:	2b01      	cmp	r3, #1
 8003b00:	d100      	bne.n	8003b04 <HAL_SPI_Transmit+0x1c>
 8003b02:	e07d      	b.n	8003c00 <HAL_SPI_Transmit+0x118>
 8003b04:	2301      	movs	r3, #1
 8003b06:	9a01      	ldr	r2, [sp, #4]
 8003b08:	7013      	strb	r3, [r2, #0]
 8003b0a:	f7ff fa39 	bl	8002f80 <HAL_GetTick>
 8003b0e:	0023      	movs	r3, r4
 8003b10:	9000      	str	r0, [sp, #0]
 8003b12:	335d      	adds	r3, #93	; 0x5d
 8003b14:	781a      	ldrb	r2, [r3, #0]
 8003b16:	b2d0      	uxtb	r0, r2
 8003b18:	2a01      	cmp	r2, #1
 8003b1a:	d000      	beq.n	8003b1e <HAL_SPI_Transmit+0x36>
 8003b1c:	e0a5      	b.n	8003c6a <HAL_SPI_Transmit+0x182>
 8003b1e:	2e00      	cmp	r6, #0
 8003b20:	d068      	beq.n	8003bf4 <HAL_SPI_Transmit+0x10c>
 8003b22:	2f00      	cmp	r7, #0
 8003b24:	d066      	beq.n	8003bf4 <HAL_SPI_Transmit+0x10c>
 8003b26:	3202      	adds	r2, #2
 8003b28:	701a      	strb	r2, [r3, #0]
 8003b2a:	2300      	movs	r3, #0
 8003b2c:	1da2      	adds	r2, r4, #6
 8003b2e:	6623      	str	r3, [r4, #96]	; 0x60
 8003b30:	6423      	str	r3, [r4, #64]	; 0x40
 8003b32:	63a6      	str	r6, [r4, #56]	; 0x38
 8003b34:	87a7      	strh	r7, [r4, #60]	; 0x3c
 8003b36:	87e7      	strh	r7, [r4, #62]	; 0x3e
 8003b38:	3202      	adds	r2, #2
 8003b3a:	8793      	strh	r3, [r2, #60]	; 0x3c
 8003b3c:	87d3      	strh	r3, [r2, #62]	; 0x3e
 8003b3e:	6523      	str	r3, [r4, #80]	; 0x50
 8003b40:	64e3      	str	r3, [r4, #76]	; 0x4c
 8003b42:	2380      	movs	r3, #128	; 0x80
 8003b44:	68a1      	ldr	r1, [r4, #8]
 8003b46:	6822      	ldr	r2, [r4, #0]
 8003b48:	021b      	lsls	r3, r3, #8
 8003b4a:	4299      	cmp	r1, r3
 8003b4c:	d108      	bne.n	8003b60 <HAL_SPI_Transmit+0x78>
 8003b4e:	2140      	movs	r1, #64	; 0x40
 8003b50:	6813      	ldr	r3, [r2, #0]
 8003b52:	438b      	bics	r3, r1
 8003b54:	6013      	str	r3, [r2, #0]
 8003b56:	2380      	movs	r3, #128	; 0x80
 8003b58:	6811      	ldr	r1, [r2, #0]
 8003b5a:	01db      	lsls	r3, r3, #7
 8003b5c:	430b      	orrs	r3, r1
 8003b5e:	6013      	str	r3, [r2, #0]
 8003b60:	2340      	movs	r3, #64	; 0x40
 8003b62:	6811      	ldr	r1, [r2, #0]
 8003b64:	4219      	tst	r1, r3
 8003b66:	d102      	bne.n	8003b6e <HAL_SPI_Transmit+0x86>
 8003b68:	6811      	ldr	r1, [r2, #0]
 8003b6a:	430b      	orrs	r3, r1
 8003b6c:	6013      	str	r3, [r2, #0]
 8003b6e:	21e0      	movs	r1, #224	; 0xe0
 8003b70:	68e0      	ldr	r0, [r4, #12]
 8003b72:	6863      	ldr	r3, [r4, #4]
 8003b74:	00c9      	lsls	r1, r1, #3
 8003b76:	4288      	cmp	r0, r1
 8003b78:	d947      	bls.n	8003c0a <HAL_SPI_Transmit+0x122>
 8003b7a:	2b00      	cmp	r3, #0
 8003b7c:	d001      	beq.n	8003b82 <HAL_SPI_Transmit+0x9a>
 8003b7e:	2f01      	cmp	r7, #1
 8003b80:	d107      	bne.n	8003b92 <HAL_SPI_Transmit+0xaa>
 8003b82:	8833      	ldrh	r3, [r6, #0]
 8003b84:	3602      	adds	r6, #2
 8003b86:	60d3      	str	r3, [r2, #12]
 8003b88:	8fe3      	ldrh	r3, [r4, #62]	; 0x3e
 8003b8a:	63a6      	str	r6, [r4, #56]	; 0x38
 8003b8c:	3b01      	subs	r3, #1
 8003b8e:	b29b      	uxth	r3, r3
 8003b90:	87e3      	strh	r3, [r4, #62]	; 0x3e
 8003b92:	2602      	movs	r6, #2
 8003b94:	e00c      	b.n	8003bb0 <HAL_SPI_Transmit+0xc8>
 8003b96:	6822      	ldr	r2, [r4, #0]
 8003b98:	6893      	ldr	r3, [r2, #8]
 8003b9a:	4233      	tst	r3, r6
 8003b9c:	d021      	beq.n	8003be2 <HAL_SPI_Transmit+0xfa>
 8003b9e:	6ba3      	ldr	r3, [r4, #56]	; 0x38
 8003ba0:	8819      	ldrh	r1, [r3, #0]
 8003ba2:	3302      	adds	r3, #2
 8003ba4:	60d1      	str	r1, [r2, #12]
 8003ba6:	63a3      	str	r3, [r4, #56]	; 0x38
 8003ba8:	8fe3      	ldrh	r3, [r4, #62]	; 0x3e
 8003baa:	3b01      	subs	r3, #1
 8003bac:	b29b      	uxth	r3, r3
 8003bae:	87e3      	strh	r3, [r4, #62]	; 0x3e
 8003bb0:	8fe3      	ldrh	r3, [r4, #62]	; 0x3e
 8003bb2:	2b00      	cmp	r3, #0
 8003bb4:	d1ef      	bne.n	8003b96 <HAL_SPI_Transmit+0xae>
 8003bb6:	0029      	movs	r1, r5
 8003bb8:	0020      	movs	r0, r4
 8003bba:	9a00      	ldr	r2, [sp, #0]
 8003bbc:	f7ff fef8 	bl	80039b0 <SPI_EndRxTxTransaction>
 8003bc0:	2800      	cmp	r0, #0
 8003bc2:	d14f      	bne.n	8003c64 <HAL_SPI_Transmit+0x17c>
 8003bc4:	68a3      	ldr	r3, [r4, #8]
 8003bc6:	2b00      	cmp	r3, #0
 8003bc8:	d106      	bne.n	8003bd8 <HAL_SPI_Transmit+0xf0>
 8003bca:	9303      	str	r3, [sp, #12]
 8003bcc:	6823      	ldr	r3, [r4, #0]
 8003bce:	68da      	ldr	r2, [r3, #12]
 8003bd0:	9203      	str	r2, [sp, #12]
 8003bd2:	689b      	ldr	r3, [r3, #8]
 8003bd4:	9303      	str	r3, [sp, #12]
 8003bd6:	9b03      	ldr	r3, [sp, #12]
 8003bd8:	6e20      	ldr	r0, [r4, #96]	; 0x60
 8003bda:	1e43      	subs	r3, r0, #1
 8003bdc:	4198      	sbcs	r0, r3
 8003bde:	b2c0      	uxtb	r0, r0
 8003be0:	e008      	b.n	8003bf4 <HAL_SPI_Transmit+0x10c>
 8003be2:	f7ff f9cd 	bl	8002f80 <HAL_GetTick>
 8003be6:	9b00      	ldr	r3, [sp, #0]
 8003be8:	1ac0      	subs	r0, r0, r3
 8003bea:	42a8      	cmp	r0, r5
 8003bec:	d30a      	bcc.n	8003c04 <HAL_SPI_Transmit+0x11c>
 8003bee:	1c6b      	adds	r3, r5, #1
 8003bf0:	d0de      	beq.n	8003bb0 <HAL_SPI_Transmit+0xc8>
 8003bf2:	2003      	movs	r0, #3
 8003bf4:	2301      	movs	r3, #1
 8003bf6:	345d      	adds	r4, #93	; 0x5d
 8003bf8:	7023      	strb	r3, [r4, #0]
 8003bfa:	2300      	movs	r3, #0
 8003bfc:	9a01      	ldr	r2, [sp, #4]
 8003bfe:	7013      	strb	r3, [r2, #0]
 8003c00:	b005      	add	sp, #20
 8003c02:	bdf0      	pop	{r4, r5, r6, r7, pc}
 8003c04:	2d00      	cmp	r5, #0
 8003c06:	d1d3      	bne.n	8003bb0 <HAL_SPI_Transmit+0xc8>
 8003c08:	e7f3      	b.n	8003bf2 <HAL_SPI_Transmit+0x10a>
 8003c0a:	2b00      	cmp	r3, #0
 8003c0c:	d001      	beq.n	8003c12 <HAL_SPI_Transmit+0x12a>
 8003c0e:	2f01      	cmp	r7, #1
 8003c10:	d108      	bne.n	8003c24 <HAL_SPI_Transmit+0x13c>
 8003c12:	7833      	ldrb	r3, [r6, #0]
 8003c14:	7313      	strb	r3, [r2, #12]
 8003c16:	6ba3      	ldr	r3, [r4, #56]	; 0x38
 8003c18:	3301      	adds	r3, #1
 8003c1a:	63a3      	str	r3, [r4, #56]	; 0x38
 8003c1c:	8fe3      	ldrh	r3, [r4, #62]	; 0x3e
 8003c1e:	3b01      	subs	r3, #1
 8003c20:	b29b      	uxth	r3, r3
 8003c22:	87e3      	strh	r3, [r4, #62]	; 0x3e
 8003c24:	2602      	movs	r6, #2
 8003c26:	e00d      	b.n	8003c44 <HAL_SPI_Transmit+0x15c>
 8003c28:	6823      	ldr	r3, [r4, #0]
 8003c2a:	689a      	ldr	r2, [r3, #8]
 8003c2c:	4232      	tst	r2, r6
 8003c2e:	d00d      	beq.n	8003c4c <HAL_SPI_Transmit+0x164>
 8003c30:	6ba2      	ldr	r2, [r4, #56]	; 0x38
 8003c32:	7812      	ldrb	r2, [r2, #0]
 8003c34:	731a      	strb	r2, [r3, #12]
 8003c36:	6ba3      	ldr	r3, [r4, #56]	; 0x38
 8003c38:	3301      	adds	r3, #1
 8003c3a:	63a3      	str	r3, [r4, #56]	; 0x38
 8003c3c:	8fe3      	ldrh	r3, [r4, #62]	; 0x3e
 8003c3e:	3b01      	subs	r3, #1
 8003c40:	b29b      	uxth	r3, r3
 8003c42:	87e3      	strh	r3, [r4, #62]	; 0x3e
 8003c44:	8fe3      	ldrh	r3, [r4, #62]	; 0x3e
 8003c46:	2b00      	cmp	r3, #0
 8003c48:	d1ee      	bne.n	8003c28 <HAL_SPI_Transmit+0x140>
 8003c4a:	e7b4      	b.n	8003bb6 <HAL_SPI_Transmit+0xce>
 8003c4c:	f7ff f998 	bl	8002f80 <HAL_GetTick>
 8003c50:	9b00      	ldr	r3, [sp, #0]
 8003c52:	1ac0      	subs	r0, r0, r3
 8003c54:	42a8      	cmp	r0, r5
 8003c56:	d302      	bcc.n	8003c5e <HAL_SPI_Transmit+0x176>
 8003c58:	1c6b      	adds	r3, r5, #1
 8003c5a:	d0f3      	beq.n	8003c44 <HAL_SPI_Transmit+0x15c>
 8003c5c:	e7c9      	b.n	8003bf2 <HAL_SPI_Transmit+0x10a>
 8003c5e:	2d00      	cmp	r5, #0
 8003c60:	d1f0      	bne.n	8003c44 <HAL_SPI_Transmit+0x15c>
 8003c62:	e7c6      	b.n	8003bf2 <HAL_SPI_Transmit+0x10a>
 8003c64:	2320      	movs	r3, #32
 8003c66:	6623      	str	r3, [r4, #96]	; 0x60
 8003c68:	e7ac      	b.n	8003bc4 <HAL_SPI_Transmit+0xdc>
 8003c6a:	2002      	movs	r0, #2
 8003c6c:	e7c2      	b.n	8003bf4 <HAL_SPI_Transmit+0x10c>
	...

08003c70 <__errno>:
 8003c70:	4b01      	ldr	r3, [pc, #4]	; (8003c78 <__errno+0x8>)
 8003c72:	6818      	ldr	r0, [r3, #0]
 8003c74:	4770      	bx	lr
 8003c76:	46c0      	nop			; (mov r8, r8)
 8003c78:	2000000c 	.word	0x2000000c

08003c7c <__libc_init_array>:
 8003c7c:	b570      	push	{r4, r5, r6, lr}
 8003c7e:	2600      	movs	r6, #0
 8003c80:	4d0c      	ldr	r5, [pc, #48]	; (8003cb4 <__libc_init_array+0x38>)
 8003c82:	4c0d      	ldr	r4, [pc, #52]	; (8003cb8 <__libc_init_array+0x3c>)
 8003c84:	1b64      	subs	r4, r4, r5
 8003c86:	10a4      	asrs	r4, r4, #2
 8003c88:	42a6      	cmp	r6, r4
 8003c8a:	d109      	bne.n	8003ca0 <__libc_init_array+0x24>
 8003c8c:	2600      	movs	r6, #0
 8003c8e:	f000 fc95 	bl	80045bc <_init>
 8003c92:	4d0a      	ldr	r5, [pc, #40]	; (8003cbc <__libc_init_array+0x40>)
 8003c94:	4c0a      	ldr	r4, [pc, #40]	; (8003cc0 <__libc_init_array+0x44>)
 8003c96:	1b64      	subs	r4, r4, r5
 8003c98:	10a4      	asrs	r4, r4, #2
 8003c9a:	42a6      	cmp	r6, r4
 8003c9c:	d105      	bne.n	8003caa <__libc_init_array+0x2e>
 8003c9e:	bd70      	pop	{r4, r5, r6, pc}
 8003ca0:	00b3      	lsls	r3, r6, #2
 8003ca2:	58eb      	ldr	r3, [r5, r3]
 8003ca4:	4798      	blx	r3
 8003ca6:	3601      	adds	r6, #1
 8003ca8:	e7ee      	b.n	8003c88 <__libc_init_array+0xc>
 8003caa:	00b3      	lsls	r3, r6, #2
 8003cac:	58eb      	ldr	r3, [r5, r3]
 8003cae:	4798      	blx	r3
 8003cb0:	3601      	adds	r6, #1
 8003cb2:	e7f2      	b.n	8003c9a <__libc_init_array+0x1e>
 8003cb4:	080046e8 	.word	0x080046e8
 8003cb8:	080046e8 	.word	0x080046e8
 8003cbc:	080046e8 	.word	0x080046e8
 8003cc0:	080046ec 	.word	0x080046ec

08003cc4 <malloc>:
 8003cc4:	b510      	push	{r4, lr}
 8003cc6:	4b03      	ldr	r3, [pc, #12]	; (8003cd4 <malloc+0x10>)
 8003cc8:	0001      	movs	r1, r0
 8003cca:	6818      	ldr	r0, [r3, #0]
 8003ccc:	f000 f882 	bl	8003dd4 <_malloc_r>
 8003cd0:	bd10      	pop	{r4, pc}
 8003cd2:	46c0      	nop			; (mov r8, r8)
 8003cd4:	2000000c 	.word	0x2000000c

08003cd8 <memcpy>:
 8003cd8:	2300      	movs	r3, #0
 8003cda:	b510      	push	{r4, lr}
 8003cdc:	429a      	cmp	r2, r3
 8003cde:	d100      	bne.n	8003ce2 <memcpy+0xa>
 8003ce0:	bd10      	pop	{r4, pc}
 8003ce2:	5ccc      	ldrb	r4, [r1, r3]
 8003ce4:	54c4      	strb	r4, [r0, r3]
 8003ce6:	3301      	adds	r3, #1
 8003ce8:	e7f8      	b.n	8003cdc <memcpy+0x4>

08003cea <memset>:
 8003cea:	0003      	movs	r3, r0
 8003cec:	1882      	adds	r2, r0, r2
 8003cee:	4293      	cmp	r3, r2
 8003cf0:	d100      	bne.n	8003cf4 <memset+0xa>
 8003cf2:	4770      	bx	lr
 8003cf4:	7019      	strb	r1, [r3, #0]
 8003cf6:	3301      	adds	r3, #1
 8003cf8:	e7f9      	b.n	8003cee <memset+0x4>
	...

08003cfc <_free_r>:
 8003cfc:	b570      	push	{r4, r5, r6, lr}
 8003cfe:	0005      	movs	r5, r0
 8003d00:	2900      	cmp	r1, #0
 8003d02:	d010      	beq.n	8003d26 <_free_r+0x2a>
 8003d04:	1f0c      	subs	r4, r1, #4
 8003d06:	6823      	ldr	r3, [r4, #0]
 8003d08:	2b00      	cmp	r3, #0
 8003d0a:	da00      	bge.n	8003d0e <_free_r+0x12>
 8003d0c:	18e4      	adds	r4, r4, r3
 8003d0e:	0028      	movs	r0, r5
 8003d10:	f000 f908 	bl	8003f24 <__malloc_lock>
 8003d14:	4a1d      	ldr	r2, [pc, #116]	; (8003d8c <_free_r+0x90>)
 8003d16:	6813      	ldr	r3, [r2, #0]
 8003d18:	2b00      	cmp	r3, #0
 8003d1a:	d105      	bne.n	8003d28 <_free_r+0x2c>
 8003d1c:	6063      	str	r3, [r4, #4]
 8003d1e:	6014      	str	r4, [r2, #0]
 8003d20:	0028      	movs	r0, r5
 8003d22:	f000 f907 	bl	8003f34 <__malloc_unlock>
 8003d26:	bd70      	pop	{r4, r5, r6, pc}
 8003d28:	42a3      	cmp	r3, r4
 8003d2a:	d908      	bls.n	8003d3e <_free_r+0x42>
 8003d2c:	6821      	ldr	r1, [r4, #0]
 8003d2e:	1860      	adds	r0, r4, r1
 8003d30:	4283      	cmp	r3, r0
 8003d32:	d1f3      	bne.n	8003d1c <_free_r+0x20>
 8003d34:	6818      	ldr	r0, [r3, #0]
 8003d36:	685b      	ldr	r3, [r3, #4]
 8003d38:	1841      	adds	r1, r0, r1
 8003d3a:	6021      	str	r1, [r4, #0]
 8003d3c:	e7ee      	b.n	8003d1c <_free_r+0x20>
 8003d3e:	001a      	movs	r2, r3
 8003d40:	685b      	ldr	r3, [r3, #4]
 8003d42:	2b00      	cmp	r3, #0
 8003d44:	d001      	beq.n	8003d4a <_free_r+0x4e>
 8003d46:	42a3      	cmp	r3, r4
 8003d48:	d9f9      	bls.n	8003d3e <_free_r+0x42>
 8003d4a:	6811      	ldr	r1, [r2, #0]
 8003d4c:	1850      	adds	r0, r2, r1
 8003d4e:	42a0      	cmp	r0, r4
 8003d50:	d10b      	bne.n	8003d6a <_free_r+0x6e>
 8003d52:	6820      	ldr	r0, [r4, #0]
 8003d54:	1809      	adds	r1, r1, r0
 8003d56:	1850      	adds	r0, r2, r1
 8003d58:	6011      	str	r1, [r2, #0]
 8003d5a:	4283      	cmp	r3, r0
 8003d5c:	d1e0      	bne.n	8003d20 <_free_r+0x24>
 8003d5e:	6818      	ldr	r0, [r3, #0]
 8003d60:	685b      	ldr	r3, [r3, #4]
 8003d62:	1841      	adds	r1, r0, r1
 8003d64:	6011      	str	r1, [r2, #0]
 8003d66:	6053      	str	r3, [r2, #4]
 8003d68:	e7da      	b.n	8003d20 <_free_r+0x24>
 8003d6a:	42a0      	cmp	r0, r4
 8003d6c:	d902      	bls.n	8003d74 <_free_r+0x78>
 8003d6e:	230c      	movs	r3, #12
 8003d70:	602b      	str	r3, [r5, #0]
 8003d72:	e7d5      	b.n	8003d20 <_free_r+0x24>
 8003d74:	6821      	ldr	r1, [r4, #0]
 8003d76:	1860      	adds	r0, r4, r1
 8003d78:	4283      	cmp	r3, r0
 8003d7a:	d103      	bne.n	8003d84 <_free_r+0x88>
 8003d7c:	6818      	ldr	r0, [r3, #0]
 8003d7e:	685b      	ldr	r3, [r3, #4]
 8003d80:	1841      	adds	r1, r0, r1
 8003d82:	6021      	str	r1, [r4, #0]
 8003d84:	6063      	str	r3, [r4, #4]
 8003d86:	6054      	str	r4, [r2, #4]
 8003d88:	e7ca      	b.n	8003d20 <_free_r+0x24>
 8003d8a:	46c0      	nop			; (mov r8, r8)
 8003d8c:	20000100 	.word	0x20000100

08003d90 <sbrk_aligned>:
 8003d90:	b570      	push	{r4, r5, r6, lr}
 8003d92:	4e0f      	ldr	r6, [pc, #60]	; (8003dd0 <sbrk_aligned+0x40>)
 8003d94:	000d      	movs	r5, r1
 8003d96:	6831      	ldr	r1, [r6, #0]
 8003d98:	0004      	movs	r4, r0
 8003d9a:	2900      	cmp	r1, #0
 8003d9c:	d102      	bne.n	8003da4 <sbrk_aligned+0x14>
 8003d9e:	f000 f88f 	bl	8003ec0 <_sbrk_r>
 8003da2:	6030      	str	r0, [r6, #0]
 8003da4:	0029      	movs	r1, r5
 8003da6:	0020      	movs	r0, r4
 8003da8:	f000 f88a 	bl	8003ec0 <_sbrk_r>
 8003dac:	1c43      	adds	r3, r0, #1
 8003dae:	d00a      	beq.n	8003dc6 <sbrk_aligned+0x36>
 8003db0:	2303      	movs	r3, #3
 8003db2:	1cc5      	adds	r5, r0, #3
 8003db4:	439d      	bics	r5, r3
 8003db6:	42a8      	cmp	r0, r5
 8003db8:	d007      	beq.n	8003dca <sbrk_aligned+0x3a>
 8003dba:	1a29      	subs	r1, r5, r0
 8003dbc:	0020      	movs	r0, r4
 8003dbe:	f000 f87f 	bl	8003ec0 <_sbrk_r>
 8003dc2:	1c43      	adds	r3, r0, #1
 8003dc4:	d101      	bne.n	8003dca <sbrk_aligned+0x3a>
 8003dc6:	2501      	movs	r5, #1
 8003dc8:	426d      	negs	r5, r5
 8003dca:	0028      	movs	r0, r5
 8003dcc:	bd70      	pop	{r4, r5, r6, pc}
 8003dce:	46c0      	nop			; (mov r8, r8)
 8003dd0:	20000104 	.word	0x20000104

08003dd4 <_malloc_r>:
 8003dd4:	b5f7      	push	{r0, r1, r2, r4, r5, r6, r7, lr}
 8003dd6:	2203      	movs	r2, #3
 8003dd8:	1ccb      	adds	r3, r1, #3
 8003dda:	4393      	bics	r3, r2
 8003ddc:	3308      	adds	r3, #8
 8003dde:	0006      	movs	r6, r0
 8003de0:	001f      	movs	r7, r3
 8003de2:	2b0c      	cmp	r3, #12
 8003de4:	d232      	bcs.n	8003e4c <_malloc_r+0x78>
 8003de6:	270c      	movs	r7, #12
 8003de8:	42b9      	cmp	r1, r7
 8003dea:	d831      	bhi.n	8003e50 <_malloc_r+0x7c>
 8003dec:	0030      	movs	r0, r6
 8003dee:	f000 f899 	bl	8003f24 <__malloc_lock>
 8003df2:	4d32      	ldr	r5, [pc, #200]	; (8003ebc <_malloc_r+0xe8>)
 8003df4:	682b      	ldr	r3, [r5, #0]
 8003df6:	001c      	movs	r4, r3
 8003df8:	2c00      	cmp	r4, #0
 8003dfa:	d12e      	bne.n	8003e5a <_malloc_r+0x86>
 8003dfc:	0039      	movs	r1, r7
 8003dfe:	0030      	movs	r0, r6
 8003e00:	f7ff ffc6 	bl	8003d90 <sbrk_aligned>
 8003e04:	0004      	movs	r4, r0
 8003e06:	1c43      	adds	r3, r0, #1
 8003e08:	d11e      	bne.n	8003e48 <_malloc_r+0x74>
 8003e0a:	682c      	ldr	r4, [r5, #0]
 8003e0c:	0025      	movs	r5, r4
 8003e0e:	2d00      	cmp	r5, #0
 8003e10:	d14a      	bne.n	8003ea8 <_malloc_r+0xd4>
 8003e12:	6823      	ldr	r3, [r4, #0]
 8003e14:	0029      	movs	r1, r5
 8003e16:	18e3      	adds	r3, r4, r3
 8003e18:	0030      	movs	r0, r6
 8003e1a:	9301      	str	r3, [sp, #4]
 8003e1c:	f000 f850 	bl	8003ec0 <_sbrk_r>
 8003e20:	9b01      	ldr	r3, [sp, #4]
 8003e22:	4283      	cmp	r3, r0
 8003e24:	d143      	bne.n	8003eae <_malloc_r+0xda>
 8003e26:	6823      	ldr	r3, [r4, #0]
 8003e28:	3703      	adds	r7, #3
 8003e2a:	1aff      	subs	r7, r7, r3
 8003e2c:	2303      	movs	r3, #3
 8003e2e:	439f      	bics	r7, r3
 8003e30:	3708      	adds	r7, #8
 8003e32:	2f0c      	cmp	r7, #12
 8003e34:	d200      	bcs.n	8003e38 <_malloc_r+0x64>
 8003e36:	270c      	movs	r7, #12
 8003e38:	0039      	movs	r1, r7
 8003e3a:	0030      	movs	r0, r6
 8003e3c:	f7ff ffa8 	bl	8003d90 <sbrk_aligned>
 8003e40:	1c43      	adds	r3, r0, #1
 8003e42:	d034      	beq.n	8003eae <_malloc_r+0xda>
 8003e44:	6823      	ldr	r3, [r4, #0]
 8003e46:	19df      	adds	r7, r3, r7
 8003e48:	6027      	str	r7, [r4, #0]
 8003e4a:	e013      	b.n	8003e74 <_malloc_r+0xa0>
 8003e4c:	2b00      	cmp	r3, #0
 8003e4e:	dacb      	bge.n	8003de8 <_malloc_r+0x14>
 8003e50:	230c      	movs	r3, #12
 8003e52:	2500      	movs	r5, #0
 8003e54:	6033      	str	r3, [r6, #0]
 8003e56:	0028      	movs	r0, r5
 8003e58:	bdfe      	pop	{r1, r2, r3, r4, r5, r6, r7, pc}
 8003e5a:	6822      	ldr	r2, [r4, #0]
 8003e5c:	1bd1      	subs	r1, r2, r7
 8003e5e:	d420      	bmi.n	8003ea2 <_malloc_r+0xce>
 8003e60:	290b      	cmp	r1, #11
 8003e62:	d917      	bls.n	8003e94 <_malloc_r+0xc0>
 8003e64:	19e2      	adds	r2, r4, r7
 8003e66:	6027      	str	r7, [r4, #0]
 8003e68:	42a3      	cmp	r3, r4
 8003e6a:	d111      	bne.n	8003e90 <_malloc_r+0xbc>
 8003e6c:	602a      	str	r2, [r5, #0]
 8003e6e:	6863      	ldr	r3, [r4, #4]
 8003e70:	6011      	str	r1, [r2, #0]
 8003e72:	6053      	str	r3, [r2, #4]
 8003e74:	0030      	movs	r0, r6
 8003e76:	0025      	movs	r5, r4
 8003e78:	f000 f85c 	bl	8003f34 <__malloc_unlock>
 8003e7c:	2207      	movs	r2, #7
 8003e7e:	350b      	adds	r5, #11
 8003e80:	1d23      	adds	r3, r4, #4
 8003e82:	4395      	bics	r5, r2
 8003e84:	1aea      	subs	r2, r5, r3
 8003e86:	429d      	cmp	r5, r3
 8003e88:	d0e5      	beq.n	8003e56 <_malloc_r+0x82>
 8003e8a:	1b5b      	subs	r3, r3, r5
 8003e8c:	50a3      	str	r3, [r4, r2]
 8003e8e:	e7e2      	b.n	8003e56 <_malloc_r+0x82>
 8003e90:	605a      	str	r2, [r3, #4]
 8003e92:	e7ec      	b.n	8003e6e <_malloc_r+0x9a>
 8003e94:	6862      	ldr	r2, [r4, #4]
 8003e96:	42a3      	cmp	r3, r4
 8003e98:	d101      	bne.n	8003e9e <_malloc_r+0xca>
 8003e9a:	602a      	str	r2, [r5, #0]
 8003e9c:	e7ea      	b.n	8003e74 <_malloc_r+0xa0>
 8003e9e:	605a      	str	r2, [r3, #4]
 8003ea0:	e7e8      	b.n	8003e74 <_malloc_r+0xa0>
 8003ea2:	0023      	movs	r3, r4
 8003ea4:	6864      	ldr	r4, [r4, #4]
 8003ea6:	e7a7      	b.n	8003df8 <_malloc_r+0x24>
 8003ea8:	002c      	movs	r4, r5
 8003eaa:	686d      	ldr	r5, [r5, #4]
 8003eac:	e7af      	b.n	8003e0e <_malloc_r+0x3a>
 8003eae:	230c      	movs	r3, #12
 8003eb0:	0030      	movs	r0, r6
 8003eb2:	6033      	str	r3, [r6, #0]
 8003eb4:	f000 f83e 	bl	8003f34 <__malloc_unlock>
 8003eb8:	e7cd      	b.n	8003e56 <_malloc_r+0x82>
 8003eba:	46c0      	nop			; (mov r8, r8)
 8003ebc:	20000100 	.word	0x20000100

08003ec0 <_sbrk_r>:
 8003ec0:	2300      	movs	r3, #0
 8003ec2:	b570      	push	{r4, r5, r6, lr}
 8003ec4:	4d06      	ldr	r5, [pc, #24]	; (8003ee0 <_sbrk_r+0x20>)
 8003ec6:	0004      	movs	r4, r0
 8003ec8:	0008      	movs	r0, r1
 8003eca:	602b      	str	r3, [r5, #0]
 8003ecc:	f7fe fee4 	bl	8002c98 <_sbrk>
 8003ed0:	1c43      	adds	r3, r0, #1
 8003ed2:	d103      	bne.n	8003edc <_sbrk_r+0x1c>
 8003ed4:	682b      	ldr	r3, [r5, #0]
 8003ed6:	2b00      	cmp	r3, #0
 8003ed8:	d000      	beq.n	8003edc <_sbrk_r+0x1c>
 8003eda:	6023      	str	r3, [r4, #0]
 8003edc:	bd70      	pop	{r4, r5, r6, pc}
 8003ede:	46c0      	nop			; (mov r8, r8)
 8003ee0:	20000108 	.word	0x20000108

08003ee4 <siprintf>:
 8003ee4:	b40e      	push	{r1, r2, r3}
 8003ee6:	b500      	push	{lr}
 8003ee8:	490b      	ldr	r1, [pc, #44]	; (8003f18 <siprintf+0x34>)
 8003eea:	b09c      	sub	sp, #112	; 0x70
 8003eec:	ab1d      	add	r3, sp, #116	; 0x74
 8003eee:	9002      	str	r0, [sp, #8]
 8003ef0:	9006      	str	r0, [sp, #24]
 8003ef2:	9107      	str	r1, [sp, #28]
 8003ef4:	9104      	str	r1, [sp, #16]
 8003ef6:	4809      	ldr	r0, [pc, #36]	; (8003f1c <siprintf+0x38>)
 8003ef8:	4909      	ldr	r1, [pc, #36]	; (8003f20 <siprintf+0x3c>)
 8003efa:	cb04      	ldmia	r3!, {r2}
 8003efc:	9105      	str	r1, [sp, #20]
 8003efe:	6800      	ldr	r0, [r0, #0]
 8003f00:	a902      	add	r1, sp, #8
 8003f02:	9301      	str	r3, [sp, #4]
 8003f04:	f000 f880 	bl	8004008 <_svfiprintf_r>
 8003f08:	2300      	movs	r3, #0
 8003f0a:	9a02      	ldr	r2, [sp, #8]
 8003f0c:	7013      	strb	r3, [r2, #0]
 8003f0e:	b01c      	add	sp, #112	; 0x70
 8003f10:	bc08      	pop	{r3}
 8003f12:	b003      	add	sp, #12
 8003f14:	4718      	bx	r3
 8003f16:	46c0      	nop			; (mov r8, r8)
 8003f18:	7fffffff 	.word	0x7fffffff
 8003f1c:	2000000c 	.word	0x2000000c
 8003f20:	ffff0208 	.word	0xffff0208

08003f24 <__malloc_lock>:
 8003f24:	b510      	push	{r4, lr}
 8003f26:	4802      	ldr	r0, [pc, #8]	; (8003f30 <__malloc_lock+0xc>)
 8003f28:	f000 faf0 	bl	800450c <__retarget_lock_acquire_recursive>
 8003f2c:	bd10      	pop	{r4, pc}
 8003f2e:	46c0      	nop			; (mov r8, r8)
 8003f30:	2000010c 	.word	0x2000010c

08003f34 <__malloc_unlock>:
 8003f34:	b510      	push	{r4, lr}
 8003f36:	4802      	ldr	r0, [pc, #8]	; (8003f40 <__malloc_unlock+0xc>)
 8003f38:	f000 fae9 	bl	800450e <__retarget_lock_release_recursive>
 8003f3c:	bd10      	pop	{r4, pc}
 8003f3e:	46c0      	nop			; (mov r8, r8)
 8003f40:	2000010c 	.word	0x2000010c

08003f44 <__ssputs_r>:
 8003f44:	b5f0      	push	{r4, r5, r6, r7, lr}
 8003f46:	688e      	ldr	r6, [r1, #8]
 8003f48:	b085      	sub	sp, #20
 8003f4a:	0007      	movs	r7, r0
 8003f4c:	000c      	movs	r4, r1
 8003f4e:	9203      	str	r2, [sp, #12]
 8003f50:	9301      	str	r3, [sp, #4]
 8003f52:	429e      	cmp	r6, r3
 8003f54:	d83c      	bhi.n	8003fd0 <__ssputs_r+0x8c>
 8003f56:	2390      	movs	r3, #144	; 0x90
 8003f58:	898a      	ldrh	r2, [r1, #12]
 8003f5a:	00db      	lsls	r3, r3, #3
 8003f5c:	421a      	tst	r2, r3
 8003f5e:	d034      	beq.n	8003fca <__ssputs_r+0x86>
 8003f60:	6909      	ldr	r1, [r1, #16]
 8003f62:	6823      	ldr	r3, [r4, #0]
 8003f64:	6960      	ldr	r0, [r4, #20]
 8003f66:	1a5b      	subs	r3, r3, r1
 8003f68:	9302      	str	r3, [sp, #8]
 8003f6a:	2303      	movs	r3, #3
 8003f6c:	4343      	muls	r3, r0
 8003f6e:	0fdd      	lsrs	r5, r3, #31
 8003f70:	18ed      	adds	r5, r5, r3
 8003f72:	9b01      	ldr	r3, [sp, #4]
 8003f74:	9802      	ldr	r0, [sp, #8]
 8003f76:	3301      	adds	r3, #1
 8003f78:	181b      	adds	r3, r3, r0
 8003f7a:	106d      	asrs	r5, r5, #1
 8003f7c:	42ab      	cmp	r3, r5
 8003f7e:	d900      	bls.n	8003f82 <__ssputs_r+0x3e>
 8003f80:	001d      	movs	r5, r3
 8003f82:	0553      	lsls	r3, r2, #21
 8003f84:	d532      	bpl.n	8003fec <__ssputs_r+0xa8>
 8003f86:	0029      	movs	r1, r5
 8003f88:	0038      	movs	r0, r7
 8003f8a:	f7ff ff23 	bl	8003dd4 <_malloc_r>
 8003f8e:	1e06      	subs	r6, r0, #0
 8003f90:	d109      	bne.n	8003fa6 <__ssputs_r+0x62>
 8003f92:	230c      	movs	r3, #12
 8003f94:	603b      	str	r3, [r7, #0]
 8003f96:	2340      	movs	r3, #64	; 0x40
 8003f98:	2001      	movs	r0, #1
 8003f9a:	89a2      	ldrh	r2, [r4, #12]
 8003f9c:	4240      	negs	r0, r0
 8003f9e:	4313      	orrs	r3, r2
 8003fa0:	81a3      	strh	r3, [r4, #12]
 8003fa2:	b005      	add	sp, #20
 8003fa4:	bdf0      	pop	{r4, r5, r6, r7, pc}
 8003fa6:	9a02      	ldr	r2, [sp, #8]
 8003fa8:	6921      	ldr	r1, [r4, #16]
 8003faa:	f7ff fe95 	bl	8003cd8 <memcpy>
 8003fae:	89a3      	ldrh	r3, [r4, #12]
 8003fb0:	4a14      	ldr	r2, [pc, #80]	; (8004004 <__ssputs_r+0xc0>)
 8003fb2:	401a      	ands	r2, r3
 8003fb4:	2380      	movs	r3, #128	; 0x80
 8003fb6:	4313      	orrs	r3, r2
 8003fb8:	81a3      	strh	r3, [r4, #12]
 8003fba:	9b02      	ldr	r3, [sp, #8]
 8003fbc:	6126      	str	r6, [r4, #16]
 8003fbe:	18f6      	adds	r6, r6, r3
 8003fc0:	6026      	str	r6, [r4, #0]
 8003fc2:	6165      	str	r5, [r4, #20]
 8003fc4:	9e01      	ldr	r6, [sp, #4]
 8003fc6:	1aed      	subs	r5, r5, r3
 8003fc8:	60a5      	str	r5, [r4, #8]
 8003fca:	9b01      	ldr	r3, [sp, #4]
 8003fcc:	429e      	cmp	r6, r3
 8003fce:	d900      	bls.n	8003fd2 <__ssputs_r+0x8e>
 8003fd0:	9e01      	ldr	r6, [sp, #4]
 8003fd2:	0032      	movs	r2, r6
 8003fd4:	9903      	ldr	r1, [sp, #12]
 8003fd6:	6820      	ldr	r0, [r4, #0]
 8003fd8:	f000 faa5 	bl	8004526 <memmove>
 8003fdc:	68a3      	ldr	r3, [r4, #8]
 8003fde:	2000      	movs	r0, #0
 8003fe0:	1b9b      	subs	r3, r3, r6
 8003fe2:	60a3      	str	r3, [r4, #8]
 8003fe4:	6823      	ldr	r3, [r4, #0]
 8003fe6:	199e      	adds	r6, r3, r6
 8003fe8:	6026      	str	r6, [r4, #0]
 8003fea:	e7da      	b.n	8003fa2 <__ssputs_r+0x5e>
 8003fec:	002a      	movs	r2, r5
 8003fee:	0038      	movs	r0, r7
 8003ff0:	f000 faac 	bl	800454c <_realloc_r>
 8003ff4:	1e06      	subs	r6, r0, #0
 8003ff6:	d1e0      	bne.n	8003fba <__ssputs_r+0x76>
 8003ff8:	0038      	movs	r0, r7
 8003ffa:	6921      	ldr	r1, [r4, #16]
 8003ffc:	f7ff fe7e 	bl	8003cfc <_free_r>
 8004000:	e7c7      	b.n	8003f92 <__ssputs_r+0x4e>
 8004002:	46c0      	nop			; (mov r8, r8)
 8004004:	fffffb7f 	.word	0xfffffb7f

08004008 <_svfiprintf_r>:
 8004008:	b5f0      	push	{r4, r5, r6, r7, lr}
 800400a:	b0a1      	sub	sp, #132	; 0x84
 800400c:	9003      	str	r0, [sp, #12]
 800400e:	001d      	movs	r5, r3
 8004010:	898b      	ldrh	r3, [r1, #12]
 8004012:	000f      	movs	r7, r1
 8004014:	0016      	movs	r6, r2
 8004016:	061b      	lsls	r3, r3, #24
 8004018:	d511      	bpl.n	800403e <_svfiprintf_r+0x36>
 800401a:	690b      	ldr	r3, [r1, #16]
 800401c:	2b00      	cmp	r3, #0
 800401e:	d10e      	bne.n	800403e <_svfiprintf_r+0x36>
 8004020:	2140      	movs	r1, #64	; 0x40
 8004022:	f7ff fed7 	bl	8003dd4 <_malloc_r>
 8004026:	6038      	str	r0, [r7, #0]
 8004028:	6138      	str	r0, [r7, #16]
 800402a:	2800      	cmp	r0, #0
 800402c:	d105      	bne.n	800403a <_svfiprintf_r+0x32>
 800402e:	230c      	movs	r3, #12
 8004030:	9a03      	ldr	r2, [sp, #12]
 8004032:	3801      	subs	r0, #1
 8004034:	6013      	str	r3, [r2, #0]
 8004036:	b021      	add	sp, #132	; 0x84
 8004038:	bdf0      	pop	{r4, r5, r6, r7, pc}
 800403a:	2340      	movs	r3, #64	; 0x40
 800403c:	617b      	str	r3, [r7, #20]
 800403e:	2300      	movs	r3, #0
 8004040:	ac08      	add	r4, sp, #32
 8004042:	6163      	str	r3, [r4, #20]
 8004044:	3320      	adds	r3, #32
 8004046:	7663      	strb	r3, [r4, #25]
 8004048:	3310      	adds	r3, #16
 800404a:	76a3      	strb	r3, [r4, #26]
 800404c:	9507      	str	r5, [sp, #28]
 800404e:	0035      	movs	r5, r6
 8004050:	782b      	ldrb	r3, [r5, #0]
 8004052:	2b00      	cmp	r3, #0
 8004054:	d001      	beq.n	800405a <_svfiprintf_r+0x52>
 8004056:	2b25      	cmp	r3, #37	; 0x25
 8004058:	d147      	bne.n	80040ea <_svfiprintf_r+0xe2>
 800405a:	1bab      	subs	r3, r5, r6
 800405c:	9305      	str	r3, [sp, #20]
 800405e:	42b5      	cmp	r5, r6
 8004060:	d00c      	beq.n	800407c <_svfiprintf_r+0x74>
 8004062:	0032      	movs	r2, r6
 8004064:	0039      	movs	r1, r7
 8004066:	9803      	ldr	r0, [sp, #12]
 8004068:	f7ff ff6c 	bl	8003f44 <__ssputs_r>
 800406c:	1c43      	adds	r3, r0, #1
 800406e:	d100      	bne.n	8004072 <_svfiprintf_r+0x6a>
 8004070:	e0ae      	b.n	80041d0 <_svfiprintf_r+0x1c8>
 8004072:	6962      	ldr	r2, [r4, #20]
 8004074:	9b05      	ldr	r3, [sp, #20]
 8004076:	4694      	mov	ip, r2
 8004078:	4463      	add	r3, ip
 800407a:	6163      	str	r3, [r4, #20]
 800407c:	782b      	ldrb	r3, [r5, #0]
 800407e:	2b00      	cmp	r3, #0
 8004080:	d100      	bne.n	8004084 <_svfiprintf_r+0x7c>
 8004082:	e0a5      	b.n	80041d0 <_svfiprintf_r+0x1c8>
 8004084:	2201      	movs	r2, #1
 8004086:	2300      	movs	r3, #0
 8004088:	4252      	negs	r2, r2
 800408a:	6062      	str	r2, [r4, #4]
 800408c:	a904      	add	r1, sp, #16
 800408e:	3254      	adds	r2, #84	; 0x54
 8004090:	1852      	adds	r2, r2, r1
 8004092:	1c6e      	adds	r6, r5, #1
 8004094:	6023      	str	r3, [r4, #0]
 8004096:	60e3      	str	r3, [r4, #12]
 8004098:	60a3      	str	r3, [r4, #8]
 800409a:	7013      	strb	r3, [r2, #0]
 800409c:	65a3      	str	r3, [r4, #88]	; 0x58
 800409e:	2205      	movs	r2, #5
 80040a0:	7831      	ldrb	r1, [r6, #0]
 80040a2:	4854      	ldr	r0, [pc, #336]	; (80041f4 <_svfiprintf_r+0x1ec>)
 80040a4:	f000 fa34 	bl	8004510 <memchr>
 80040a8:	1c75      	adds	r5, r6, #1
 80040aa:	2800      	cmp	r0, #0
 80040ac:	d11f      	bne.n	80040ee <_svfiprintf_r+0xe6>
 80040ae:	6822      	ldr	r2, [r4, #0]
 80040b0:	06d3      	lsls	r3, r2, #27
 80040b2:	d504      	bpl.n	80040be <_svfiprintf_r+0xb6>
 80040b4:	2353      	movs	r3, #83	; 0x53
 80040b6:	a904      	add	r1, sp, #16
 80040b8:	185b      	adds	r3, r3, r1
 80040ba:	2120      	movs	r1, #32
 80040bc:	7019      	strb	r1, [r3, #0]
 80040be:	0713      	lsls	r3, r2, #28
 80040c0:	d504      	bpl.n	80040cc <_svfiprintf_r+0xc4>
 80040c2:	2353      	movs	r3, #83	; 0x53
 80040c4:	a904      	add	r1, sp, #16
 80040c6:	185b      	adds	r3, r3, r1
 80040c8:	212b      	movs	r1, #43	; 0x2b
 80040ca:	7019      	strb	r1, [r3, #0]
 80040cc:	7833      	ldrb	r3, [r6, #0]
 80040ce:	2b2a      	cmp	r3, #42	; 0x2a
 80040d0:	d016      	beq.n	8004100 <_svfiprintf_r+0xf8>
 80040d2:	0035      	movs	r5, r6
 80040d4:	2100      	movs	r1, #0
 80040d6:	200a      	movs	r0, #10
 80040d8:	68e3      	ldr	r3, [r4, #12]
 80040da:	782a      	ldrb	r2, [r5, #0]
 80040dc:	1c6e      	adds	r6, r5, #1
 80040de:	3a30      	subs	r2, #48	; 0x30
 80040e0:	2a09      	cmp	r2, #9
 80040e2:	d94e      	bls.n	8004182 <_svfiprintf_r+0x17a>
 80040e4:	2900      	cmp	r1, #0
 80040e6:	d111      	bne.n	800410c <_svfiprintf_r+0x104>
 80040e8:	e017      	b.n	800411a <_svfiprintf_r+0x112>
 80040ea:	3501      	adds	r5, #1
 80040ec:	e7b0      	b.n	8004050 <_svfiprintf_r+0x48>
 80040ee:	4b41      	ldr	r3, [pc, #260]	; (80041f4 <_svfiprintf_r+0x1ec>)
 80040f0:	6822      	ldr	r2, [r4, #0]
 80040f2:	1ac0      	subs	r0, r0, r3
 80040f4:	2301      	movs	r3, #1
 80040f6:	4083      	lsls	r3, r0
 80040f8:	4313      	orrs	r3, r2
 80040fa:	002e      	movs	r6, r5
 80040fc:	6023      	str	r3, [r4, #0]
 80040fe:	e7ce      	b.n	800409e <_svfiprintf_r+0x96>
 8004100:	9b07      	ldr	r3, [sp, #28]
 8004102:	1d19      	adds	r1, r3, #4
 8004104:	681b      	ldr	r3, [r3, #0]
 8004106:	9107      	str	r1, [sp, #28]
 8004108:	2b00      	cmp	r3, #0
 800410a:	db01      	blt.n	8004110 <_svfiprintf_r+0x108>
 800410c:	930b      	str	r3, [sp, #44]	; 0x2c
 800410e:	e004      	b.n	800411a <_svfiprintf_r+0x112>
 8004110:	425b      	negs	r3, r3
 8004112:	60e3      	str	r3, [r4, #12]
 8004114:	2302      	movs	r3, #2
 8004116:	4313      	orrs	r3, r2
 8004118:	6023      	str	r3, [r4, #0]
 800411a:	782b      	ldrb	r3, [r5, #0]
 800411c:	2b2e      	cmp	r3, #46	; 0x2e
 800411e:	d10a      	bne.n	8004136 <_svfiprintf_r+0x12e>
 8004120:	786b      	ldrb	r3, [r5, #1]
 8004122:	2b2a      	cmp	r3, #42	; 0x2a
 8004124:	d135      	bne.n	8004192 <_svfiprintf_r+0x18a>
 8004126:	9b07      	ldr	r3, [sp, #28]
 8004128:	3502      	adds	r5, #2
 800412a:	1d1a      	adds	r2, r3, #4
 800412c:	681b      	ldr	r3, [r3, #0]
 800412e:	9207      	str	r2, [sp, #28]
 8004130:	2b00      	cmp	r3, #0
 8004132:	db2b      	blt.n	800418c <_svfiprintf_r+0x184>
 8004134:	9309      	str	r3, [sp, #36]	; 0x24
 8004136:	4e30      	ldr	r6, [pc, #192]	; (80041f8 <_svfiprintf_r+0x1f0>)
 8004138:	2203      	movs	r2, #3
 800413a:	0030      	movs	r0, r6
 800413c:	7829      	ldrb	r1, [r5, #0]
 800413e:	f000 f9e7 	bl	8004510 <memchr>
 8004142:	2800      	cmp	r0, #0
 8004144:	d006      	beq.n	8004154 <_svfiprintf_r+0x14c>
 8004146:	2340      	movs	r3, #64	; 0x40
 8004148:	1b80      	subs	r0, r0, r6
 800414a:	4083      	lsls	r3, r0
 800414c:	6822      	ldr	r2, [r4, #0]
 800414e:	3501      	adds	r5, #1
 8004150:	4313      	orrs	r3, r2
 8004152:	6023      	str	r3, [r4, #0]
 8004154:	7829      	ldrb	r1, [r5, #0]
 8004156:	2206      	movs	r2, #6
 8004158:	4828      	ldr	r0, [pc, #160]	; (80041fc <_svfiprintf_r+0x1f4>)
 800415a:	1c6e      	adds	r6, r5, #1
 800415c:	7621      	strb	r1, [r4, #24]
 800415e:	f000 f9d7 	bl	8004510 <memchr>
 8004162:	2800      	cmp	r0, #0
 8004164:	d03c      	beq.n	80041e0 <_svfiprintf_r+0x1d8>
 8004166:	4b26      	ldr	r3, [pc, #152]	; (8004200 <_svfiprintf_r+0x1f8>)
 8004168:	2b00      	cmp	r3, #0
 800416a:	d125      	bne.n	80041b8 <_svfiprintf_r+0x1b0>
 800416c:	2207      	movs	r2, #7
 800416e:	9b07      	ldr	r3, [sp, #28]
 8004170:	3307      	adds	r3, #7
 8004172:	4393      	bics	r3, r2
 8004174:	3308      	adds	r3, #8
 8004176:	9307      	str	r3, [sp, #28]
 8004178:	6963      	ldr	r3, [r4, #20]
 800417a:	9a04      	ldr	r2, [sp, #16]
 800417c:	189b      	adds	r3, r3, r2
 800417e:	6163      	str	r3, [r4, #20]
 8004180:	e765      	b.n	800404e <_svfiprintf_r+0x46>
 8004182:	4343      	muls	r3, r0
 8004184:	0035      	movs	r5, r6
 8004186:	2101      	movs	r1, #1
 8004188:	189b      	adds	r3, r3, r2
 800418a:	e7a6      	b.n	80040da <_svfiprintf_r+0xd2>
 800418c:	2301      	movs	r3, #1
 800418e:	425b      	negs	r3, r3
 8004190:	e7d0      	b.n	8004134 <_svfiprintf_r+0x12c>
 8004192:	2300      	movs	r3, #0
 8004194:	200a      	movs	r0, #10
 8004196:	001a      	movs	r2, r3
 8004198:	3501      	adds	r5, #1
 800419a:	6063      	str	r3, [r4, #4]
 800419c:	7829      	ldrb	r1, [r5, #0]
 800419e:	1c6e      	adds	r6, r5, #1
 80041a0:	3930      	subs	r1, #48	; 0x30
 80041a2:	2909      	cmp	r1, #9
 80041a4:	d903      	bls.n	80041ae <_svfiprintf_r+0x1a6>
 80041a6:	2b00      	cmp	r3, #0
 80041a8:	d0c5      	beq.n	8004136 <_svfiprintf_r+0x12e>
 80041aa:	9209      	str	r2, [sp, #36]	; 0x24
 80041ac:	e7c3      	b.n	8004136 <_svfiprintf_r+0x12e>
 80041ae:	4342      	muls	r2, r0
 80041b0:	0035      	movs	r5, r6
 80041b2:	2301      	movs	r3, #1
 80041b4:	1852      	adds	r2, r2, r1
 80041b6:	e7f1      	b.n	800419c <_svfiprintf_r+0x194>
 80041b8:	ab07      	add	r3, sp, #28
 80041ba:	9300      	str	r3, [sp, #0]
 80041bc:	003a      	movs	r2, r7
 80041be:	0021      	movs	r1, r4
 80041c0:	4b10      	ldr	r3, [pc, #64]	; (8004204 <_svfiprintf_r+0x1fc>)
 80041c2:	9803      	ldr	r0, [sp, #12]
 80041c4:	e000      	b.n	80041c8 <_svfiprintf_r+0x1c0>
 80041c6:	bf00      	nop
 80041c8:	9004      	str	r0, [sp, #16]
 80041ca:	9b04      	ldr	r3, [sp, #16]
 80041cc:	3301      	adds	r3, #1
 80041ce:	d1d3      	bne.n	8004178 <_svfiprintf_r+0x170>
 80041d0:	89bb      	ldrh	r3, [r7, #12]
 80041d2:	980d      	ldr	r0, [sp, #52]	; 0x34
 80041d4:	065b      	lsls	r3, r3, #25
 80041d6:	d400      	bmi.n	80041da <_svfiprintf_r+0x1d2>
 80041d8:	e72d      	b.n	8004036 <_svfiprintf_r+0x2e>
 80041da:	2001      	movs	r0, #1
 80041dc:	4240      	negs	r0, r0
 80041de:	e72a      	b.n	8004036 <_svfiprintf_r+0x2e>
 80041e0:	ab07      	add	r3, sp, #28
 80041e2:	9300      	str	r3, [sp, #0]
 80041e4:	003a      	movs	r2, r7
 80041e6:	0021      	movs	r1, r4
 80041e8:	4b06      	ldr	r3, [pc, #24]	; (8004204 <_svfiprintf_r+0x1fc>)
 80041ea:	9803      	ldr	r0, [sp, #12]
 80041ec:	f000 f87c 	bl	80042e8 <_printf_i>
 80041f0:	e7ea      	b.n	80041c8 <_svfiprintf_r+0x1c0>
 80041f2:	46c0      	nop			; (mov r8, r8)
 80041f4:	080046ac 	.word	0x080046ac
 80041f8:	080046b2 	.word	0x080046b2
 80041fc:	080046b6 	.word	0x080046b6
 8004200:	00000000 	.word	0x00000000
 8004204:	08003f45 	.word	0x08003f45

08004208 <_printf_common>:
 8004208:	b5f7      	push	{r0, r1, r2, r4, r5, r6, r7, lr}
 800420a:	0015      	movs	r5, r2
 800420c:	9301      	str	r3, [sp, #4]
 800420e:	688a      	ldr	r2, [r1, #8]
 8004210:	690b      	ldr	r3, [r1, #16]
 8004212:	000c      	movs	r4, r1
 8004214:	9000      	str	r0, [sp, #0]
 8004216:	4293      	cmp	r3, r2
 8004218:	da00      	bge.n	800421c <_printf_common+0x14>
 800421a:	0013      	movs	r3, r2
 800421c:	0022      	movs	r2, r4
 800421e:	602b      	str	r3, [r5, #0]
 8004220:	3243      	adds	r2, #67	; 0x43
 8004222:	7812      	ldrb	r2, [r2, #0]
 8004224:	2a00      	cmp	r2, #0
 8004226:	d001      	beq.n	800422c <_printf_common+0x24>
 8004228:	3301      	adds	r3, #1
 800422a:	602b      	str	r3, [r5, #0]
 800422c:	6823      	ldr	r3, [r4, #0]
 800422e:	069b      	lsls	r3, r3, #26
 8004230:	d502      	bpl.n	8004238 <_printf_common+0x30>
 8004232:	682b      	ldr	r3, [r5, #0]
 8004234:	3302      	adds	r3, #2
 8004236:	602b      	str	r3, [r5, #0]
 8004238:	6822      	ldr	r2, [r4, #0]
 800423a:	2306      	movs	r3, #6
 800423c:	0017      	movs	r7, r2
 800423e:	401f      	ands	r7, r3
 8004240:	421a      	tst	r2, r3
 8004242:	d027      	beq.n	8004294 <_printf_common+0x8c>
 8004244:	0023      	movs	r3, r4
 8004246:	3343      	adds	r3, #67	; 0x43
 8004248:	781b      	ldrb	r3, [r3, #0]
 800424a:	1e5a      	subs	r2, r3, #1
 800424c:	4193      	sbcs	r3, r2
 800424e:	6822      	ldr	r2, [r4, #0]
 8004250:	0692      	lsls	r2, r2, #26
 8004252:	d430      	bmi.n	80042b6 <_printf_common+0xae>
 8004254:	0022      	movs	r2, r4
 8004256:	9901      	ldr	r1, [sp, #4]
 8004258:	9800      	ldr	r0, [sp, #0]
 800425a:	9e08      	ldr	r6, [sp, #32]
 800425c:	3243      	adds	r2, #67	; 0x43
 800425e:	47b0      	blx	r6
 8004260:	1c43      	adds	r3, r0, #1
 8004262:	d025      	beq.n	80042b0 <_printf_common+0xa8>
 8004264:	2306      	movs	r3, #6
 8004266:	6820      	ldr	r0, [r4, #0]
 8004268:	682a      	ldr	r2, [r5, #0]
 800426a:	68e1      	ldr	r1, [r4, #12]
 800426c:	2500      	movs	r5, #0
 800426e:	4003      	ands	r3, r0
 8004270:	2b04      	cmp	r3, #4
 8004272:	d103      	bne.n	800427c <_printf_common+0x74>
 8004274:	1a8d      	subs	r5, r1, r2
 8004276:	43eb      	mvns	r3, r5
 8004278:	17db      	asrs	r3, r3, #31
 800427a:	401d      	ands	r5, r3
 800427c:	68a3      	ldr	r3, [r4, #8]
 800427e:	6922      	ldr	r2, [r4, #16]
 8004280:	4293      	cmp	r3, r2
 8004282:	dd01      	ble.n	8004288 <_printf_common+0x80>
 8004284:	1a9b      	subs	r3, r3, r2
 8004286:	18ed      	adds	r5, r5, r3
 8004288:	2700      	movs	r7, #0
 800428a:	42bd      	cmp	r5, r7
 800428c:	d120      	bne.n	80042d0 <_printf_common+0xc8>
 800428e:	2000      	movs	r0, #0
 8004290:	e010      	b.n	80042b4 <_printf_common+0xac>
 8004292:	3701      	adds	r7, #1
 8004294:	68e3      	ldr	r3, [r4, #12]
 8004296:	682a      	ldr	r2, [r5, #0]
 8004298:	1a9b      	subs	r3, r3, r2
 800429a:	42bb      	cmp	r3, r7
 800429c:	ddd2      	ble.n	8004244 <_printf_common+0x3c>
 800429e:	0022      	movs	r2, r4
 80042a0:	2301      	movs	r3, #1
 80042a2:	9901      	ldr	r1, [sp, #4]
 80042a4:	9800      	ldr	r0, [sp, #0]
 80042a6:	9e08      	ldr	r6, [sp, #32]
 80042a8:	3219      	adds	r2, #25
 80042aa:	47b0      	blx	r6
 80042ac:	1c43      	adds	r3, r0, #1
 80042ae:	d1f0      	bne.n	8004292 <_printf_common+0x8a>
 80042b0:	2001      	movs	r0, #1
 80042b2:	4240      	negs	r0, r0
 80042b4:	bdfe      	pop	{r1, r2, r3, r4, r5, r6, r7, pc}
 80042b6:	2030      	movs	r0, #48	; 0x30
 80042b8:	18e1      	adds	r1, r4, r3
 80042ba:	3143      	adds	r1, #67	; 0x43
 80042bc:	7008      	strb	r0, [r1, #0]
 80042be:	0021      	movs	r1, r4
 80042c0:	1c5a      	adds	r2, r3, #1
 80042c2:	3145      	adds	r1, #69	; 0x45
 80042c4:	7809      	ldrb	r1, [r1, #0]
 80042c6:	18a2      	adds	r2, r4, r2
 80042c8:	3243      	adds	r2, #67	; 0x43
 80042ca:	3302      	adds	r3, #2
 80042cc:	7011      	strb	r1, [r2, #0]
 80042ce:	e7c1      	b.n	8004254 <_printf_common+0x4c>
 80042d0:	0022      	movs	r2, r4
 80042d2:	2301      	movs	r3, #1
 80042d4:	9901      	ldr	r1, [sp, #4]
 80042d6:	9800      	ldr	r0, [sp, #0]
 80042d8:	9e08      	ldr	r6, [sp, #32]
 80042da:	321a      	adds	r2, #26
 80042dc:	47b0      	blx	r6
 80042de:	1c43      	adds	r3, r0, #1
 80042e0:	d0e6      	beq.n	80042b0 <_printf_common+0xa8>
 80042e2:	3701      	adds	r7, #1
 80042e4:	e7d1      	b.n	800428a <_printf_common+0x82>
	...

080042e8 <_printf_i>:
 80042e8:	b5f0      	push	{r4, r5, r6, r7, lr}
 80042ea:	b08b      	sub	sp, #44	; 0x2c
 80042ec:	9206      	str	r2, [sp, #24]
 80042ee:	000a      	movs	r2, r1
 80042f0:	3243      	adds	r2, #67	; 0x43
 80042f2:	9307      	str	r3, [sp, #28]
 80042f4:	9005      	str	r0, [sp, #20]
 80042f6:	9204      	str	r2, [sp, #16]
 80042f8:	7e0a      	ldrb	r2, [r1, #24]
 80042fa:	000c      	movs	r4, r1
 80042fc:	9b10      	ldr	r3, [sp, #64]	; 0x40
 80042fe:	2a78      	cmp	r2, #120	; 0x78
 8004300:	d807      	bhi.n	8004312 <_printf_i+0x2a>
 8004302:	2a62      	cmp	r2, #98	; 0x62
 8004304:	d809      	bhi.n	800431a <_printf_i+0x32>
 8004306:	2a00      	cmp	r2, #0
 8004308:	d100      	bne.n	800430c <_printf_i+0x24>
 800430a:	e0c1      	b.n	8004490 <_printf_i+0x1a8>
 800430c:	2a58      	cmp	r2, #88	; 0x58
 800430e:	d100      	bne.n	8004312 <_printf_i+0x2a>
 8004310:	e08c      	b.n	800442c <_printf_i+0x144>
 8004312:	0026      	movs	r6, r4
 8004314:	3642      	adds	r6, #66	; 0x42
 8004316:	7032      	strb	r2, [r6, #0]
 8004318:	e022      	b.n	8004360 <_printf_i+0x78>
 800431a:	0010      	movs	r0, r2
 800431c:	3863      	subs	r0, #99	; 0x63
 800431e:	2815      	cmp	r0, #21
 8004320:	d8f7      	bhi.n	8004312 <_printf_i+0x2a>
 8004322:	f7fb fef5 	bl	8000110 <__gnu_thumb1_case_shi>
 8004326:	0016      	.short	0x0016
 8004328:	fff6001f 	.word	0xfff6001f
 800432c:	fff6fff6 	.word	0xfff6fff6
 8004330:	001ffff6 	.word	0x001ffff6
 8004334:	fff6fff6 	.word	0xfff6fff6
 8004338:	fff6fff6 	.word	0xfff6fff6
 800433c:	003600a8 	.word	0x003600a8
 8004340:	fff6009a 	.word	0xfff6009a
 8004344:	00b9fff6 	.word	0x00b9fff6
 8004348:	0036fff6 	.word	0x0036fff6
 800434c:	fff6fff6 	.word	0xfff6fff6
 8004350:	009e      	.short	0x009e
 8004352:	0026      	movs	r6, r4
 8004354:	681a      	ldr	r2, [r3, #0]
 8004356:	3642      	adds	r6, #66	; 0x42
 8004358:	1d11      	adds	r1, r2, #4
 800435a:	6019      	str	r1, [r3, #0]
 800435c:	6813      	ldr	r3, [r2, #0]
 800435e:	7033      	strb	r3, [r6, #0]
 8004360:	2301      	movs	r3, #1
 8004362:	e0a7      	b.n	80044b4 <_printf_i+0x1cc>
 8004364:	6808      	ldr	r0, [r1, #0]
 8004366:	6819      	ldr	r1, [r3, #0]
 8004368:	1d0a      	adds	r2, r1, #4
 800436a:	0605      	lsls	r5, r0, #24
 800436c:	d50b      	bpl.n	8004386 <_printf_i+0x9e>
 800436e:	680d      	ldr	r5, [r1, #0]
 8004370:	601a      	str	r2, [r3, #0]
 8004372:	2d00      	cmp	r5, #0
 8004374:	da03      	bge.n	800437e <_printf_i+0x96>
 8004376:	232d      	movs	r3, #45	; 0x2d
 8004378:	9a04      	ldr	r2, [sp, #16]
 800437a:	426d      	negs	r5, r5
 800437c:	7013      	strb	r3, [r2, #0]
 800437e:	4b61      	ldr	r3, [pc, #388]	; (8004504 <_printf_i+0x21c>)
 8004380:	270a      	movs	r7, #10
 8004382:	9303      	str	r3, [sp, #12]
 8004384:	e01b      	b.n	80043be <_printf_i+0xd6>
 8004386:	680d      	ldr	r5, [r1, #0]
 8004388:	601a      	str	r2, [r3, #0]
 800438a:	0641      	lsls	r1, r0, #25
 800438c:	d5f1      	bpl.n	8004372 <_printf_i+0x8a>
 800438e:	b22d      	sxth	r5, r5
 8004390:	e7ef      	b.n	8004372 <_printf_i+0x8a>
 8004392:	680d      	ldr	r5, [r1, #0]
 8004394:	6819      	ldr	r1, [r3, #0]
 8004396:	1d08      	adds	r0, r1, #4
 8004398:	6018      	str	r0, [r3, #0]
 800439a:	062e      	lsls	r6, r5, #24
 800439c:	d501      	bpl.n	80043a2 <_printf_i+0xba>
 800439e:	680d      	ldr	r5, [r1, #0]
 80043a0:	e003      	b.n	80043aa <_printf_i+0xc2>
 80043a2:	066d      	lsls	r5, r5, #25
 80043a4:	d5fb      	bpl.n	800439e <_printf_i+0xb6>
 80043a6:	680d      	ldr	r5, [r1, #0]
 80043a8:	b2ad      	uxth	r5, r5
 80043aa:	4b56      	ldr	r3, [pc, #344]	; (8004504 <_printf_i+0x21c>)
 80043ac:	2708      	movs	r7, #8
 80043ae:	9303      	str	r3, [sp, #12]
 80043b0:	2a6f      	cmp	r2, #111	; 0x6f
 80043b2:	d000      	beq.n	80043b6 <_printf_i+0xce>
 80043b4:	3702      	adds	r7, #2
 80043b6:	0023      	movs	r3, r4
 80043b8:	2200      	movs	r2, #0
 80043ba:	3343      	adds	r3, #67	; 0x43
 80043bc:	701a      	strb	r2, [r3, #0]
 80043be:	6863      	ldr	r3, [r4, #4]
 80043c0:	60a3      	str	r3, [r4, #8]
 80043c2:	2b00      	cmp	r3, #0
 80043c4:	db03      	blt.n	80043ce <_printf_i+0xe6>
 80043c6:	2204      	movs	r2, #4
 80043c8:	6821      	ldr	r1, [r4, #0]
 80043ca:	4391      	bics	r1, r2
 80043cc:	6021      	str	r1, [r4, #0]
 80043ce:	2d00      	cmp	r5, #0
 80043d0:	d102      	bne.n	80043d8 <_printf_i+0xf0>
 80043d2:	9e04      	ldr	r6, [sp, #16]
 80043d4:	2b00      	cmp	r3, #0
 80043d6:	d00c      	beq.n	80043f2 <_printf_i+0x10a>
 80043d8:	9e04      	ldr	r6, [sp, #16]
 80043da:	0028      	movs	r0, r5
 80043dc:	0039      	movs	r1, r7
 80043de:	f7fb ff27 	bl	8000230 <__aeabi_uidivmod>
 80043e2:	9b03      	ldr	r3, [sp, #12]
 80043e4:	3e01      	subs	r6, #1
 80043e6:	5c5b      	ldrb	r3, [r3, r1]
 80043e8:	7033      	strb	r3, [r6, #0]
 80043ea:	002b      	movs	r3, r5
 80043ec:	0005      	movs	r5, r0
 80043ee:	429f      	cmp	r7, r3
 80043f0:	d9f3      	bls.n	80043da <_printf_i+0xf2>
 80043f2:	2f08      	cmp	r7, #8
 80043f4:	d109      	bne.n	800440a <_printf_i+0x122>
 80043f6:	6823      	ldr	r3, [r4, #0]
 80043f8:	07db      	lsls	r3, r3, #31
 80043fa:	d506      	bpl.n	800440a <_printf_i+0x122>
 80043fc:	6863      	ldr	r3, [r4, #4]
 80043fe:	6922      	ldr	r2, [r4, #16]
 8004400:	4293      	cmp	r3, r2
 8004402:	dc02      	bgt.n	800440a <_printf_i+0x122>
 8004404:	2330      	movs	r3, #48	; 0x30
 8004406:	3e01      	subs	r6, #1
 8004408:	7033      	strb	r3, [r6, #0]
 800440a:	9b04      	ldr	r3, [sp, #16]
 800440c:	1b9b      	subs	r3, r3, r6
 800440e:	6123      	str	r3, [r4, #16]
 8004410:	9b07      	ldr	r3, [sp, #28]
 8004412:	0021      	movs	r1, r4
 8004414:	9300      	str	r3, [sp, #0]
 8004416:	9805      	ldr	r0, [sp, #20]
 8004418:	9b06      	ldr	r3, [sp, #24]
 800441a:	aa09      	add	r2, sp, #36	; 0x24
 800441c:	f7ff fef4 	bl	8004208 <_printf_common>
 8004420:	1c43      	adds	r3, r0, #1
 8004422:	d14c      	bne.n	80044be <_printf_i+0x1d6>
 8004424:	2001      	movs	r0, #1
 8004426:	4240      	negs	r0, r0
 8004428:	b00b      	add	sp, #44	; 0x2c
 800442a:	bdf0      	pop	{r4, r5, r6, r7, pc}
 800442c:	3145      	adds	r1, #69	; 0x45
 800442e:	700a      	strb	r2, [r1, #0]
 8004430:	4a34      	ldr	r2, [pc, #208]	; (8004504 <_printf_i+0x21c>)
 8004432:	9203      	str	r2, [sp, #12]
 8004434:	681a      	ldr	r2, [r3, #0]
 8004436:	6821      	ldr	r1, [r4, #0]
 8004438:	ca20      	ldmia	r2!, {r5}
 800443a:	601a      	str	r2, [r3, #0]
 800443c:	0608      	lsls	r0, r1, #24
 800443e:	d516      	bpl.n	800446e <_printf_i+0x186>
 8004440:	07cb      	lsls	r3, r1, #31
 8004442:	d502      	bpl.n	800444a <_printf_i+0x162>
 8004444:	2320      	movs	r3, #32
 8004446:	4319      	orrs	r1, r3
 8004448:	6021      	str	r1, [r4, #0]
 800444a:	2710      	movs	r7, #16
 800444c:	2d00      	cmp	r5, #0
 800444e:	d1b2      	bne.n	80043b6 <_printf_i+0xce>
 8004450:	2320      	movs	r3, #32
 8004452:	6822      	ldr	r2, [r4, #0]
 8004454:	439a      	bics	r2, r3
 8004456:	6022      	str	r2, [r4, #0]
 8004458:	e7ad      	b.n	80043b6 <_printf_i+0xce>
 800445a:	2220      	movs	r2, #32
 800445c:	6809      	ldr	r1, [r1, #0]
 800445e:	430a      	orrs	r2, r1
 8004460:	6022      	str	r2, [r4, #0]
 8004462:	0022      	movs	r2, r4
 8004464:	2178      	movs	r1, #120	; 0x78
 8004466:	3245      	adds	r2, #69	; 0x45
 8004468:	7011      	strb	r1, [r2, #0]
 800446a:	4a27      	ldr	r2, [pc, #156]	; (8004508 <_printf_i+0x220>)
 800446c:	e7e1      	b.n	8004432 <_printf_i+0x14a>
 800446e:	0648      	lsls	r0, r1, #25
 8004470:	d5e6      	bpl.n	8004440 <_printf_i+0x158>
 8004472:	b2ad      	uxth	r5, r5
 8004474:	e7e4      	b.n	8004440 <_printf_i+0x158>
 8004476:	681a      	ldr	r2, [r3, #0]
 8004478:	680d      	ldr	r5, [r1, #0]
 800447a:	1d10      	adds	r0, r2, #4
 800447c:	6949      	ldr	r1, [r1, #20]
 800447e:	6018      	str	r0, [r3, #0]
 8004480:	6813      	ldr	r3, [r2, #0]
 8004482:	062e      	lsls	r6, r5, #24
 8004484:	d501      	bpl.n	800448a <_printf_i+0x1a2>
 8004486:	6019      	str	r1, [r3, #0]
 8004488:	e002      	b.n	8004490 <_printf_i+0x1a8>
 800448a:	066d      	lsls	r5, r5, #25
 800448c:	d5fb      	bpl.n	8004486 <_printf_i+0x19e>
 800448e:	8019      	strh	r1, [r3, #0]
 8004490:	2300      	movs	r3, #0
 8004492:	9e04      	ldr	r6, [sp, #16]
 8004494:	6123      	str	r3, [r4, #16]
 8004496:	e7bb      	b.n	8004410 <_printf_i+0x128>
 8004498:	681a      	ldr	r2, [r3, #0]
 800449a:	1d11      	adds	r1, r2, #4
 800449c:	6019      	str	r1, [r3, #0]
 800449e:	6816      	ldr	r6, [r2, #0]
 80044a0:	2100      	movs	r1, #0
 80044a2:	0030      	movs	r0, r6
 80044a4:	6862      	ldr	r2, [r4, #4]
 80044a6:	f000 f833 	bl	8004510 <memchr>
 80044aa:	2800      	cmp	r0, #0
 80044ac:	d001      	beq.n	80044b2 <_printf_i+0x1ca>
 80044ae:	1b80      	subs	r0, r0, r6
 80044b0:	6060      	str	r0, [r4, #4]
 80044b2:	6863      	ldr	r3, [r4, #4]
 80044b4:	6123      	str	r3, [r4, #16]
 80044b6:	2300      	movs	r3, #0
 80044b8:	9a04      	ldr	r2, [sp, #16]
 80044ba:	7013      	strb	r3, [r2, #0]
 80044bc:	e7a8      	b.n	8004410 <_printf_i+0x128>
 80044be:	6923      	ldr	r3, [r4, #16]
 80044c0:	0032      	movs	r2, r6
 80044c2:	9906      	ldr	r1, [sp, #24]
 80044c4:	9805      	ldr	r0, [sp, #20]
 80044c6:	9d07      	ldr	r5, [sp, #28]
 80044c8:	47a8      	blx	r5
 80044ca:	1c43      	adds	r3, r0, #1
 80044cc:	d0aa      	beq.n	8004424 <_printf_i+0x13c>
 80044ce:	6823      	ldr	r3, [r4, #0]
 80044d0:	079b      	lsls	r3, r3, #30
 80044d2:	d415      	bmi.n	8004500 <_printf_i+0x218>
 80044d4:	9b09      	ldr	r3, [sp, #36]	; 0x24
 80044d6:	68e0      	ldr	r0, [r4, #12]
 80044d8:	4298      	cmp	r0, r3
 80044da:	daa5      	bge.n	8004428 <_printf_i+0x140>
 80044dc:	0018      	movs	r0, r3
 80044de:	e7a3      	b.n	8004428 <_printf_i+0x140>
 80044e0:	0022      	movs	r2, r4
 80044e2:	2301      	movs	r3, #1
 80044e4:	9906      	ldr	r1, [sp, #24]
 80044e6:	9805      	ldr	r0, [sp, #20]
 80044e8:	9e07      	ldr	r6, [sp, #28]
 80044ea:	3219      	adds	r2, #25
 80044ec:	47b0      	blx	r6
 80044ee:	1c43      	adds	r3, r0, #1
 80044f0:	d098      	beq.n	8004424 <_printf_i+0x13c>
 80044f2:	3501      	adds	r5, #1
 80044f4:	68e3      	ldr	r3, [r4, #12]
 80044f6:	9a09      	ldr	r2, [sp, #36]	; 0x24
 80044f8:	1a9b      	subs	r3, r3, r2
 80044fa:	42ab      	cmp	r3, r5
 80044fc:	dcf0      	bgt.n	80044e0 <_printf_i+0x1f8>
 80044fe:	e7e9      	b.n	80044d4 <_printf_i+0x1ec>
 8004500:	2500      	movs	r5, #0
 8004502:	e7f7      	b.n	80044f4 <_printf_i+0x20c>
 8004504:	080046bd 	.word	0x080046bd
 8004508:	080046ce 	.word	0x080046ce

0800450c <__retarget_lock_acquire_recursive>:
 800450c:	4770      	bx	lr

0800450e <__retarget_lock_release_recursive>:
 800450e:	4770      	bx	lr

08004510 <memchr>:
 8004510:	b2c9      	uxtb	r1, r1
 8004512:	1882      	adds	r2, r0, r2
 8004514:	4290      	cmp	r0, r2
 8004516:	d101      	bne.n	800451c <memchr+0xc>
 8004518:	2000      	movs	r0, #0
 800451a:	4770      	bx	lr
 800451c:	7803      	ldrb	r3, [r0, #0]
 800451e:	428b      	cmp	r3, r1
 8004520:	d0fb      	beq.n	800451a <memchr+0xa>
 8004522:	3001      	adds	r0, #1
 8004524:	e7f6      	b.n	8004514 <memchr+0x4>

08004526 <memmove>:
 8004526:	b510      	push	{r4, lr}
 8004528:	4288      	cmp	r0, r1
 800452a:	d902      	bls.n	8004532 <memmove+0xc>
 800452c:	188b      	adds	r3, r1, r2
 800452e:	4298      	cmp	r0, r3
 8004530:	d303      	bcc.n	800453a <memmove+0x14>
 8004532:	2300      	movs	r3, #0
 8004534:	e007      	b.n	8004546 <memmove+0x20>
 8004536:	5c8b      	ldrb	r3, [r1, r2]
 8004538:	5483      	strb	r3, [r0, r2]
 800453a:	3a01      	subs	r2, #1
 800453c:	d2fb      	bcs.n	8004536 <memmove+0x10>
 800453e:	bd10      	pop	{r4, pc}
 8004540:	5ccc      	ldrb	r4, [r1, r3]
 8004542:	54c4      	strb	r4, [r0, r3]
 8004544:	3301      	adds	r3, #1
 8004546:	429a      	cmp	r2, r3
 8004548:	d1fa      	bne.n	8004540 <memmove+0x1a>
 800454a:	e7f8      	b.n	800453e <memmove+0x18>

0800454c <_realloc_r>:
 800454c:	b5f7      	push	{r0, r1, r2, r4, r5, r6, r7, lr}
 800454e:	0007      	movs	r7, r0
 8004550:	000e      	movs	r6, r1
 8004552:	0014      	movs	r4, r2
 8004554:	2900      	cmp	r1, #0
 8004556:	d105      	bne.n	8004564 <_realloc_r+0x18>
 8004558:	0011      	movs	r1, r2
 800455a:	f7ff fc3b 	bl	8003dd4 <_malloc_r>
 800455e:	0005      	movs	r5, r0
 8004560:	0028      	movs	r0, r5
 8004562:	bdfe      	pop	{r1, r2, r3, r4, r5, r6, r7, pc}
 8004564:	2a00      	cmp	r2, #0
 8004566:	d103      	bne.n	8004570 <_realloc_r+0x24>
 8004568:	f7ff fbc8 	bl	8003cfc <_free_r>
 800456c:	0025      	movs	r5, r4
 800456e:	e7f7      	b.n	8004560 <_realloc_r+0x14>
 8004570:	f000 f81b 	bl	80045aa <_malloc_usable_size_r>
 8004574:	9001      	str	r0, [sp, #4]
 8004576:	4284      	cmp	r4, r0
 8004578:	d803      	bhi.n	8004582 <_realloc_r+0x36>
 800457a:	0035      	movs	r5, r6
 800457c:	0843      	lsrs	r3, r0, #1
 800457e:	42a3      	cmp	r3, r4
 8004580:	d3ee      	bcc.n	8004560 <_realloc_r+0x14>
 8004582:	0021      	movs	r1, r4
 8004584:	0038      	movs	r0, r7
 8004586:	f7ff fc25 	bl	8003dd4 <_malloc_r>
 800458a:	1e05      	subs	r5, r0, #0
 800458c:	d0e8      	beq.n	8004560 <_realloc_r+0x14>
 800458e:	9b01      	ldr	r3, [sp, #4]
 8004590:	0022      	movs	r2, r4
 8004592:	429c      	cmp	r4, r3
 8004594:	d900      	bls.n	8004598 <_realloc_r+0x4c>
 8004596:	001a      	movs	r2, r3
 8004598:	0031      	movs	r1, r6
 800459a:	0028      	movs	r0, r5
 800459c:	f7ff fb9c 	bl	8003cd8 <memcpy>
 80045a0:	0031      	movs	r1, r6
 80045a2:	0038      	movs	r0, r7
 80045a4:	f7ff fbaa 	bl	8003cfc <_free_r>
 80045a8:	e7da      	b.n	8004560 <_realloc_r+0x14>

080045aa <_malloc_usable_size_r>:
 80045aa:	1f0b      	subs	r3, r1, #4
 80045ac:	681b      	ldr	r3, [r3, #0]
 80045ae:	1f18      	subs	r0, r3, #4
 80045b0:	2b00      	cmp	r3, #0
 80045b2:	da01      	bge.n	80045b8 <_malloc_usable_size_r+0xe>
 80045b4:	580b      	ldr	r3, [r1, r0]
 80045b6:	18c0      	adds	r0, r0, r3
 80045b8:	4770      	bx	lr
	...

080045bc <_init>:
 80045bc:	b5f8      	push	{r3, r4, r5, r6, r7, lr}
 80045be:	46c0      	nop			; (mov r8, r8)
 80045c0:	bcf8      	pop	{r3, r4, r5, r6, r7}
 80045c2:	bc08      	pop	{r3}
 80045c4:	469e      	mov	lr, r3
 80045c6:	4770      	bx	lr

080045c8 <_fini>:
 80045c8:	b5f8      	push	{r3, r4, r5, r6, r7, lr}
 80045ca:	46c0      	nop			; (mov r8, r8)
 80045cc:	bcf8      	pop	{r3, r4, r5, r6, r7}
 80045ce:	bc08      	pop	{r3}
 80045d0:	469e      	mov	lr, r3
 80045d2:	4770      	bx	lr
